
rtarget:     file format elf64-x86-64


Disassembly of section .init:

0000000000401000 <_init>:
  401000:	48 83 ec 08          	sub    $0x8,%rsp
  401004:	48 8b 05 ed 5f 00 00 	mov    0x5fed(%rip),%rax        # 406ff8 <__gmon_start__>
  40100b:	48 85 c0             	test   %rax,%rax
  40100e:	74 02                	je     401012 <_init+0x12>
  401010:	ff d0                	callq  *%rax
  401012:	48 83 c4 08          	add    $0x8,%rsp
  401016:	c3                   	retq   

Disassembly of section .plt:

0000000000401020 <.plt>:
  401020:	ff 35 e2 5f 00 00    	pushq  0x5fe2(%rip)        # 407008 <_GLOBAL_OFFSET_TABLE_+0x8>
  401026:	ff 25 e4 5f 00 00    	jmpq   *0x5fe4(%rip)        # 407010 <_GLOBAL_OFFSET_TABLE_+0x10>
  40102c:	0f 1f 40 00          	nopl   0x0(%rax)

0000000000401030 <strcasecmp@plt>:
  401030:	ff 25 e2 5f 00 00    	jmpq   *0x5fe2(%rip)        # 407018 <strcasecmp@GLIBC_2.2.5>
  401036:	68 00 00 00 00       	pushq  $0x0
  40103b:	e9 e0 ff ff ff       	jmpq   401020 <.plt>

0000000000401040 <__errno_location@plt>:
  401040:	ff 25 da 5f 00 00    	jmpq   *0x5fda(%rip)        # 407020 <__errno_location@GLIBC_2.2.5>
  401046:	68 01 00 00 00       	pushq  $0x1
  40104b:	e9 d0 ff ff ff       	jmpq   401020 <.plt>

0000000000401050 <srandom@plt>:
  401050:	ff 25 d2 5f 00 00    	jmpq   *0x5fd2(%rip)        # 407028 <srandom@GLIBC_2.2.5>
  401056:	68 02 00 00 00       	pushq  $0x2
  40105b:	e9 c0 ff ff ff       	jmpq   401020 <.plt>

0000000000401060 <strncmp@plt>:
  401060:	ff 25 ca 5f 00 00    	jmpq   *0x5fca(%rip)        # 407030 <strncmp@GLIBC_2.2.5>
  401066:	68 03 00 00 00       	pushq  $0x3
  40106b:	e9 b0 ff ff ff       	jmpq   401020 <.plt>

0000000000401070 <strcpy@plt>:
  401070:	ff 25 c2 5f 00 00    	jmpq   *0x5fc2(%rip)        # 407038 <strcpy@GLIBC_2.2.5>
  401076:	68 04 00 00 00       	pushq  $0x4
  40107b:	e9 a0 ff ff ff       	jmpq   401020 <.plt>

0000000000401080 <puts@plt>:
  401080:	ff 25 ba 5f 00 00    	jmpq   *0x5fba(%rip)        # 407040 <puts@GLIBC_2.2.5>
  401086:	68 05 00 00 00       	pushq  $0x5
  40108b:	e9 90 ff ff ff       	jmpq   401020 <.plt>

0000000000401090 <write@plt>:
  401090:	ff 25 b2 5f 00 00    	jmpq   *0x5fb2(%rip)        # 407048 <write@GLIBC_2.2.5>
  401096:	68 06 00 00 00       	pushq  $0x6
  40109b:	e9 80 ff ff ff       	jmpq   401020 <.plt>

00000000004010a0 <mmap@plt>:
  4010a0:	ff 25 aa 5f 00 00    	jmpq   *0x5faa(%rip)        # 407050 <mmap@GLIBC_2.2.5>
  4010a6:	68 07 00 00 00       	pushq  $0x7
  4010ab:	e9 70 ff ff ff       	jmpq   401020 <.plt>

00000000004010b0 <printf@plt>:
  4010b0:	ff 25 a2 5f 00 00    	jmpq   *0x5fa2(%rip)        # 407058 <printf@GLIBC_2.2.5>
  4010b6:	68 08 00 00 00       	pushq  $0x8
  4010bb:	e9 60 ff ff ff       	jmpq   401020 <.plt>

00000000004010c0 <memset@plt>:
  4010c0:	ff 25 9a 5f 00 00    	jmpq   *0x5f9a(%rip)        # 407060 <memset@GLIBC_2.2.5>
  4010c6:	68 09 00 00 00       	pushq  $0x9
  4010cb:	e9 50 ff ff ff       	jmpq   401020 <.plt>

00000000004010d0 <alarm@plt>:
  4010d0:	ff 25 92 5f 00 00    	jmpq   *0x5f92(%rip)        # 407068 <alarm@GLIBC_2.2.5>
  4010d6:	68 0a 00 00 00       	pushq  $0xa
  4010db:	e9 40 ff ff ff       	jmpq   401020 <.plt>

00000000004010e0 <close@plt>:
  4010e0:	ff 25 8a 5f 00 00    	jmpq   *0x5f8a(%rip)        # 407070 <close@GLIBC_2.2.5>
  4010e6:	68 0b 00 00 00       	pushq  $0xb
  4010eb:	e9 30 ff ff ff       	jmpq   401020 <.plt>

00000000004010f0 <read@plt>:
  4010f0:	ff 25 82 5f 00 00    	jmpq   *0x5f82(%rip)        # 407078 <read@GLIBC_2.2.5>
  4010f6:	68 0c 00 00 00       	pushq  $0xc
  4010fb:	e9 20 ff ff ff       	jmpq   401020 <.plt>

0000000000401100 <signal@plt>:
  401100:	ff 25 7a 5f 00 00    	jmpq   *0x5f7a(%rip)        # 407080 <signal@GLIBC_2.2.5>
  401106:	68 0d 00 00 00       	pushq  $0xd
  40110b:	e9 10 ff ff ff       	jmpq   401020 <.plt>

0000000000401110 <gethostbyname@plt>:
  401110:	ff 25 72 5f 00 00    	jmpq   *0x5f72(%rip)        # 407088 <gethostbyname@GLIBC_2.2.5>
  401116:	68 0e 00 00 00       	pushq  $0xe
  40111b:	e9 00 ff ff ff       	jmpq   401020 <.plt>

0000000000401120 <fprintf@plt>:
  401120:	ff 25 6a 5f 00 00    	jmpq   *0x5f6a(%rip)        # 407090 <fprintf@GLIBC_2.2.5>
  401126:	68 0f 00 00 00       	pushq  $0xf
  40112b:	e9 f0 fe ff ff       	jmpq   401020 <.plt>

0000000000401130 <strtol@plt>:
  401130:	ff 25 62 5f 00 00    	jmpq   *0x5f62(%rip)        # 407098 <strtol@GLIBC_2.2.5>
  401136:	68 10 00 00 00       	pushq  $0x10
  40113b:	e9 e0 fe ff ff       	jmpq   401020 <.plt>

0000000000401140 <memcpy@plt>:
  401140:	ff 25 5a 5f 00 00    	jmpq   *0x5f5a(%rip)        # 4070a0 <memcpy@GLIBC_2.14>
  401146:	68 11 00 00 00       	pushq  $0x11
  40114b:	e9 d0 fe ff ff       	jmpq   401020 <.plt>

0000000000401150 <time@plt>:
  401150:	ff 25 52 5f 00 00    	jmpq   *0x5f52(%rip)        # 4070a8 <time@GLIBC_2.2.5>
  401156:	68 12 00 00 00       	pushq  $0x12
  40115b:	e9 c0 fe ff ff       	jmpq   401020 <.plt>

0000000000401160 <random@plt>:
  401160:	ff 25 4a 5f 00 00    	jmpq   *0x5f4a(%rip)        # 4070b0 <random@GLIBC_2.2.5>
  401166:	68 13 00 00 00       	pushq  $0x13
  40116b:	e9 b0 fe ff ff       	jmpq   401020 <.plt>

0000000000401170 <__isoc99_sscanf@plt>:
  401170:	ff 25 42 5f 00 00    	jmpq   *0x5f42(%rip)        # 4070b8 <__isoc99_sscanf@GLIBC_2.7>
  401176:	68 14 00 00 00       	pushq  $0x14
  40117b:	e9 a0 fe ff ff       	jmpq   401020 <.plt>

0000000000401180 <munmap@plt>:
  401180:	ff 25 3a 5f 00 00    	jmpq   *0x5f3a(%rip)        # 4070c0 <munmap@GLIBC_2.2.5>
  401186:	68 15 00 00 00       	pushq  $0x15
  40118b:	e9 90 fe ff ff       	jmpq   401020 <.plt>

0000000000401190 <memmove@plt>:
  401190:	ff 25 32 5f 00 00    	jmpq   *0x5f32(%rip)        # 4070c8 <memmove@GLIBC_2.2.5>
  401196:	68 16 00 00 00       	pushq  $0x16
  40119b:	e9 80 fe ff ff       	jmpq   401020 <.plt>

00000000004011a0 <fopen@plt>:
  4011a0:	ff 25 2a 5f 00 00    	jmpq   *0x5f2a(%rip)        # 4070d0 <fopen@GLIBC_2.2.5>
  4011a6:	68 17 00 00 00       	pushq  $0x17
  4011ab:	e9 70 fe ff ff       	jmpq   401020 <.plt>

00000000004011b0 <getopt@plt>:
  4011b0:	ff 25 22 5f 00 00    	jmpq   *0x5f22(%rip)        # 4070d8 <getopt@GLIBC_2.2.5>
  4011b6:	68 18 00 00 00       	pushq  $0x18
  4011bb:	e9 60 fe ff ff       	jmpq   401020 <.plt>

00000000004011c0 <strtoul@plt>:
  4011c0:	ff 25 1a 5f 00 00    	jmpq   *0x5f1a(%rip)        # 4070e0 <strtoul@GLIBC_2.2.5>
  4011c6:	68 19 00 00 00       	pushq  $0x19
  4011cb:	e9 50 fe ff ff       	jmpq   401020 <.plt>

00000000004011d0 <gethostname@plt>:
  4011d0:	ff 25 12 5f 00 00    	jmpq   *0x5f12(%rip)        # 4070e8 <gethostname@GLIBC_2.2.5>
  4011d6:	68 1a 00 00 00       	pushq  $0x1a
  4011db:	e9 40 fe ff ff       	jmpq   401020 <.plt>

00000000004011e0 <sprintf@plt>:
  4011e0:	ff 25 0a 5f 00 00    	jmpq   *0x5f0a(%rip)        # 4070f0 <sprintf@GLIBC_2.2.5>
  4011e6:	68 1b 00 00 00       	pushq  $0x1b
  4011eb:	e9 30 fe ff ff       	jmpq   401020 <.plt>

00000000004011f0 <exit@plt>:
  4011f0:	ff 25 02 5f 00 00    	jmpq   *0x5f02(%rip)        # 4070f8 <exit@GLIBC_2.2.5>
  4011f6:	68 1c 00 00 00       	pushq  $0x1c
  4011fb:	e9 20 fe ff ff       	jmpq   401020 <.plt>

0000000000401200 <connect@plt>:
  401200:	ff 25 fa 5e 00 00    	jmpq   *0x5efa(%rip)        # 407100 <connect@GLIBC_2.2.5>
  401206:	68 1d 00 00 00       	pushq  $0x1d
  40120b:	e9 10 fe ff ff       	jmpq   401020 <.plt>

0000000000401210 <getc@plt>:
  401210:	ff 25 f2 5e 00 00    	jmpq   *0x5ef2(%rip)        # 407108 <getc@GLIBC_2.2.5>
  401216:	68 1e 00 00 00       	pushq  $0x1e
  40121b:	e9 00 fe ff ff       	jmpq   401020 <.plt>

0000000000401220 <socket@plt>:
  401220:	ff 25 ea 5e 00 00    	jmpq   *0x5eea(%rip)        # 407110 <socket@GLIBC_2.2.5>
  401226:	68 1f 00 00 00       	pushq  $0x1f
  40122b:	e9 f0 fd ff ff       	jmpq   401020 <.plt>

Disassembly of section .text:

0000000000401230 <_start>:
  401230:	31 ed                	xor    %ebp,%ebp
  401232:	49 89 d1             	mov    %rdx,%r9
  401235:	5e                   	pop    %rsi
  401236:	48 89 e2             	mov    %rsp,%rdx
  401239:	48 83 e4 f0          	and    $0xfffffffffffffff0,%rsp
  40123d:	50                   	push   %rax
  40123e:	54                   	push   %rsp
  40123f:	49 c7 c0 20 32 40 00 	mov    $0x403220,%r8
  401246:	48 c7 c1 c0 31 40 00 	mov    $0x4031c0,%rcx
  40124d:	48 c7 c7 c9 14 40 00 	mov    $0x4014c9,%rdi
  401254:	ff 15 96 5d 00 00    	callq  *0x5d96(%rip)        # 406ff0 <__libc_start_main@GLIBC_2.2.5>
  40125a:	f4                   	hlt    
  40125b:	0f 1f 44 00 00       	nopl   0x0(%rax,%rax,1)

0000000000401260 <_dl_relocate_static_pie>:
  401260:	c3                   	retq   
  401261:	66 2e 0f 1f 84 00 00 	nopw   %cs:0x0(%rax,%rax,1)
  401268:	00 00 00 
  40126b:	0f 1f 44 00 00       	nopl   0x0(%rax,%rax,1)

0000000000401270 <deregister_tm_clones>:
  401270:	b8 90 74 40 00       	mov    $0x407490,%eax
  401275:	48 3d 90 74 40 00    	cmp    $0x407490,%rax
  40127b:	74 13                	je     401290 <deregister_tm_clones+0x20>
  40127d:	b8 00 00 00 00       	mov    $0x0,%eax
  401282:	48 85 c0             	test   %rax,%rax
  401285:	74 09                	je     401290 <deregister_tm_clones+0x20>
  401287:	bf 90 74 40 00       	mov    $0x407490,%edi
  40128c:	ff e0                	jmpq   *%rax
  40128e:	66 90                	xchg   %ax,%ax
  401290:	c3                   	retq   
  401291:	66 66 2e 0f 1f 84 00 	data16 nopw %cs:0x0(%rax,%rax,1)
  401298:	00 00 00 00 
  40129c:	0f 1f 40 00          	nopl   0x0(%rax)

00000000004012a0 <register_tm_clones>:
  4012a0:	be 90 74 40 00       	mov    $0x407490,%esi
  4012a5:	48 81 ee 90 74 40 00 	sub    $0x407490,%rsi
  4012ac:	48 c1 fe 03          	sar    $0x3,%rsi
  4012b0:	48 89 f0             	mov    %rsi,%rax
  4012b3:	48 c1 e8 3f          	shr    $0x3f,%rax
  4012b7:	48 01 c6             	add    %rax,%rsi
  4012ba:	48 d1 fe             	sar    %rsi
  4012bd:	74 11                	je     4012d0 <register_tm_clones+0x30>
  4012bf:	b8 00 00 00 00       	mov    $0x0,%eax
  4012c4:	48 85 c0             	test   %rax,%rax
  4012c7:	74 07                	je     4012d0 <register_tm_clones+0x30>
  4012c9:	bf 90 74 40 00       	mov    $0x407490,%edi
  4012ce:	ff e0                	jmpq   *%rax
  4012d0:	c3                   	retq   
  4012d1:	66 66 2e 0f 1f 84 00 	data16 nopw %cs:0x0(%rax,%rax,1)
  4012d8:	00 00 00 00 
  4012dc:	0f 1f 40 00          	nopl   0x0(%rax)

00000000004012e0 <__do_global_dtors_aux>:
  4012e0:	80 3d e1 61 00 00 00 	cmpb   $0x0,0x61e1(%rip)        # 4074c8 <completed.7325>
  4012e7:	75 17                	jne    401300 <__do_global_dtors_aux+0x20>
  4012e9:	55                   	push   %rbp
  4012ea:	48 89 e5             	mov    %rsp,%rbp
  4012ed:	e8 7e ff ff ff       	callq  401270 <deregister_tm_clones>
  4012f2:	c6 05 cf 61 00 00 01 	movb   $0x1,0x61cf(%rip)        # 4074c8 <completed.7325>
  4012f9:	5d                   	pop    %rbp
  4012fa:	c3                   	retq   
  4012fb:	0f 1f 44 00 00       	nopl   0x0(%rax,%rax,1)
  401300:	c3                   	retq   
  401301:	66 66 2e 0f 1f 84 00 	data16 nopw %cs:0x0(%rax,%rax,1)
  401308:	00 00 00 00 
  40130c:	0f 1f 40 00          	nopl   0x0(%rax)

0000000000401310 <frame_dummy>:
  401310:	eb 8e                	jmp    4012a0 <register_tm_clones>

0000000000401312 <usage>:
  401312:	48 83 ec 08          	sub    $0x8,%rsp
  401316:	48 89 fe             	mov    %rdi,%rsi
  401319:	83 3d e8 61 00 00 00 	cmpl   $0x0,0x61e8(%rip)        # 407508 <is_checker>
  401320:	74 4b                	je     40136d <usage+0x5b>
  401322:	48 8d 3d df 2c 00 00 	lea    0x2cdf(%rip),%rdi        # 404008 <_IO_stdin_used+0x8>
  401329:	b8 00 00 00 00       	mov    $0x0,%eax
  40132e:	e8 7d fd ff ff       	callq  4010b0 <printf@plt>
  401333:	48 8d 3d 06 2d 00 00 	lea    0x2d06(%rip),%rdi        # 404040 <_IO_stdin_used+0x40>
  40133a:	e8 41 fd ff ff       	callq  401080 <puts@plt>
  40133f:	48 8d 3d 32 2e 00 00 	lea    0x2e32(%rip),%rdi        # 404178 <_IO_stdin_used+0x178>
  401346:	e8 35 fd ff ff       	callq  401080 <puts@plt>
  40134b:	48 8d 3d 16 2d 00 00 	lea    0x2d16(%rip),%rdi        # 404068 <_IO_stdin_used+0x68>
  401352:	e8 29 fd ff ff       	callq  401080 <puts@plt>
  401357:	48 8d 3d 34 2e 00 00 	lea    0x2e34(%rip),%rdi        # 404192 <_IO_stdin_used+0x192>
  40135e:	e8 1d fd ff ff       	callq  401080 <puts@plt>
  401363:	bf 00 00 00 00       	mov    $0x0,%edi
  401368:	e8 83 fe ff ff       	callq  4011f0 <exit@plt>
  40136d:	48 8d 3d 3a 2e 00 00 	lea    0x2e3a(%rip),%rdi        # 4041ae <_IO_stdin_used+0x1ae>
  401374:	b8 00 00 00 00       	mov    $0x0,%eax
  401379:	e8 32 fd ff ff       	callq  4010b0 <printf@plt>
  40137e:	48 8d 3d 0b 2d 00 00 	lea    0x2d0b(%rip),%rdi        # 404090 <_IO_stdin_used+0x90>
  401385:	e8 f6 fc ff ff       	callq  401080 <puts@plt>
  40138a:	48 8d 3d 27 2d 00 00 	lea    0x2d27(%rip),%rdi        # 4040b8 <_IO_stdin_used+0xb8>
  401391:	e8 ea fc ff ff       	callq  401080 <puts@plt>
  401396:	48 8d 3d 2f 2e 00 00 	lea    0x2e2f(%rip),%rdi        # 4041cc <_IO_stdin_used+0x1cc>
  40139d:	e8 de fc ff ff       	callq  401080 <puts@plt>
  4013a2:	eb bf                	jmp    401363 <usage+0x51>

00000000004013a4 <initialize_target>:
  4013a4:	55                   	push   %rbp
  4013a5:	53                   	push   %rbx
  4013a6:	48 81 ec 08 21 00 00 	sub    $0x2108,%rsp
  4013ad:	89 f5                	mov    %esi,%ebp
  4013af:	89 3d 43 61 00 00    	mov    %edi,0x6143(%rip)        # 4074f8 <check_level>
  4013b5:	8b 3d 75 5d 00 00    	mov    0x5d75(%rip),%edi        # 407130 <target_id>
  4013bb:	e8 de 1d 00 00       	callq  40319e <gencookie>
  4013c0:	89 05 3e 61 00 00    	mov    %eax,0x613e(%rip)        # 407504 <cookie>
  4013c6:	89 c7                	mov    %eax,%edi
  4013c8:	e8 d1 1d 00 00       	callq  40319e <gencookie>
  4013cd:	89 05 2d 61 00 00    	mov    %eax,0x612d(%rip)        # 407500 <authkey>
  4013d3:	8b 05 57 5d 00 00    	mov    0x5d57(%rip),%eax        # 407130 <target_id>
  4013d9:	8d 78 01             	lea    0x1(%rax),%edi
  4013dc:	e8 6f fc ff ff       	callq  401050 <srandom@plt>
  4013e1:	e8 7a fd ff ff       	callq  401160 <random@plt>
  4013e6:	89 c7                	mov    %eax,%edi
  4013e8:	e8 b1 02 00 00       	callq  40169e <scramble>
  4013ed:	89 c3                	mov    %eax,%ebx
  4013ef:	85 ed                	test   %ebp,%ebp
  4013f1:	75 3d                	jne    401430 <initialize_target+0x8c>
  4013f3:	b8 00 00 00 00       	mov    $0x0,%eax
  4013f8:	01 d8                	add    %ebx,%eax
  4013fa:	0f b7 c0             	movzwl %ax,%eax
  4013fd:	8d 04 c5 00 01 00 00 	lea    0x100(,%rax,8),%eax
  401404:	89 c0                	mov    %eax,%eax
  401406:	48 89 05 73 60 00 00 	mov    %rax,0x6073(%rip)        # 407480 <buf_offset>
  40140d:	c6 05 14 6d 00 00 72 	movb   $0x72,0x6d14(%rip)        # 408128 <target_prefix>
  401414:	83 3d 6d 60 00 00 00 	cmpl   $0x0,0x606d(%rip)        # 407488 <notify>
  40141b:	74 09                	je     401426 <initialize_target+0x82>
  40141d:	83 3d e4 60 00 00 00 	cmpl   $0x0,0x60e4(%rip)        # 407508 <is_checker>
  401424:	74 22                	je     401448 <initialize_target+0xa4>
  401426:	48 81 c4 08 21 00 00 	add    $0x2108,%rsp
  40142d:	5b                   	pop    %rbx
  40142e:	5d                   	pop    %rbp
  40142f:	c3                   	retq   
  401430:	bf 00 00 00 00       	mov    $0x0,%edi
  401435:	e8 16 fd ff ff       	callq  401150 <time@plt>
  40143a:	89 c7                	mov    %eax,%edi
  40143c:	e8 0f fc ff ff       	callq  401050 <srandom@plt>
  401441:	e8 1a fd ff ff       	callq  401160 <random@plt>
  401446:	eb b0                	jmp    4013f8 <initialize_target+0x54>
  401448:	48 89 e7             	mov    %rsp,%rdi
  40144b:	be 00 01 00 00       	mov    $0x100,%esi
  401450:	e8 7b fd ff ff       	callq  4011d0 <gethostname@plt>
  401455:	89 c3                	mov    %eax,%ebx
  401457:	85 c0                	test   %eax,%eax
  401459:	75 24                	jne    40147f <initialize_target+0xdb>
  40145b:	48 63 c3             	movslq %ebx,%rax
  40145e:	48 8d 15 fb 5c 00 00 	lea    0x5cfb(%rip),%rdx        # 407160 <host_table>
  401465:	48 8b 3c c2          	mov    (%rdx,%rax,8),%rdi
  401469:	48 85 ff             	test   %rdi,%rdi
  40146c:	74 27                	je     401495 <initialize_target+0xf1>
  40146e:	48 89 e6             	mov    %rsp,%rsi
  401471:	e8 ba fb ff ff       	callq  401030 <strcasecmp@plt>
  401476:	85 c0                	test   %eax,%eax
  401478:	74 1b                	je     401495 <initialize_target+0xf1>
  40147a:	83 c3 01             	add    $0x1,%ebx
  40147d:	eb dc                	jmp    40145b <initialize_target+0xb7>
  40147f:	48 8d 3d 62 2c 00 00 	lea    0x2c62(%rip),%rdi        # 4040e8 <_IO_stdin_used+0xe8>
  401486:	e8 f5 fb ff ff       	callq  401080 <puts@plt>
  40148b:	bf 08 00 00 00       	mov    $0x8,%edi
  401490:	e8 5b fd ff ff       	callq  4011f0 <exit@plt>
  401495:	48 8d bc 24 00 01 00 	lea    0x100(%rsp),%rdi
  40149c:	00 
  40149d:	e8 61 1a 00 00       	callq  402f03 <init_driver>
  4014a2:	85 c0                	test   %eax,%eax
  4014a4:	79 80                	jns    401426 <initialize_target+0x82>
  4014a6:	48 8d b4 24 00 01 00 	lea    0x100(%rsp),%rsi
  4014ad:	00 
  4014ae:	48 8d 3d 6b 2c 00 00 	lea    0x2c6b(%rip),%rdi        # 404120 <_IO_stdin_used+0x120>
  4014b5:	b8 00 00 00 00       	mov    $0x0,%eax
  4014ba:	e8 f1 fb ff ff       	callq  4010b0 <printf@plt>
  4014bf:	bf 08 00 00 00       	mov    $0x8,%edi
  4014c4:	e8 27 fd ff ff       	callq  4011f0 <exit@plt>

00000000004014c9 <main>:
  4014c9:	41 56                	push   %r14
  4014cb:	41 55                	push   %r13
  4014cd:	41 54                	push   %r12
  4014cf:	55                   	push   %rbp
  4014d0:	53                   	push   %rbx
  4014d1:	89 fd                	mov    %edi,%ebp
  4014d3:	48 89 f3             	mov    %rsi,%rbx
  4014d6:	48 c7 c6 d5 22 40 00 	mov    $0x4022d5,%rsi
  4014dd:	bf 0b 00 00 00       	mov    $0xb,%edi
  4014e2:	e8 19 fc ff ff       	callq  401100 <signal@plt>
  4014e7:	48 c7 c6 81 22 40 00 	mov    $0x402281,%rsi
  4014ee:	bf 07 00 00 00       	mov    $0x7,%edi
  4014f3:	e8 08 fc ff ff       	callq  401100 <signal@plt>
  4014f8:	48 c7 c6 29 23 40 00 	mov    $0x402329,%rsi
  4014ff:	bf 04 00 00 00       	mov    $0x4,%edi
  401504:	e8 f7 fb ff ff       	callq  401100 <signal@plt>
  401509:	83 3d f8 5f 00 00 00 	cmpl   $0x0,0x5ff8(%rip)        # 407508 <is_checker>
  401510:	75 26                	jne    401538 <main+0x6f>
  401512:	4c 8d 25 d4 2c 00 00 	lea    0x2cd4(%rip),%r12        # 4041ed <_IO_stdin_used+0x1ed>
  401519:	48 8b 05 80 5f 00 00 	mov    0x5f80(%rip),%rax        # 4074a0 <stdin@@GLIBC_2.2.5>
  401520:	48 89 05 c9 5f 00 00 	mov    %rax,0x5fc9(%rip)        # 4074f0 <infile>
  401527:	41 bd 00 00 00 00    	mov    $0x0,%r13d
  40152d:	41 be 00 00 00 00    	mov    $0x0,%r14d
  401533:	e9 88 00 00 00       	jmpq   4015c0 <main+0xf7>
  401538:	48 c7 c6 7d 23 40 00 	mov    $0x40237d,%rsi
  40153f:	bf 0e 00 00 00       	mov    $0xe,%edi
  401544:	e8 b7 fb ff ff       	callq  401100 <signal@plt>
  401549:	bf 05 00 00 00       	mov    $0x5,%edi
  40154e:	e8 7d fb ff ff       	callq  4010d0 <alarm@plt>
  401553:	4c 8d 25 8b 2c 00 00 	lea    0x2c8b(%rip),%r12        # 4041e5 <_IO_stdin_used+0x1e5>
  40155a:	eb bd                	jmp    401519 <main+0x50>
  40155c:	48 8b 3b             	mov    (%rbx),%rdi
  40155f:	e8 ae fd ff ff       	callq  401312 <usage>
  401564:	48 8d 35 0a 2f 00 00 	lea    0x2f0a(%rip),%rsi        # 404475 <_IO_stdin_used+0x475>
  40156b:	48 8b 3d 36 5f 00 00 	mov    0x5f36(%rip),%rdi        # 4074a8 <optarg@@GLIBC_2.2.5>
  401572:	e8 29 fc ff ff       	callq  4011a0 <fopen@plt>
  401577:	48 89 05 72 5f 00 00 	mov    %rax,0x5f72(%rip)        # 4074f0 <infile>
  40157e:	48 85 c0             	test   %rax,%rax
  401581:	75 3d                	jne    4015c0 <main+0xf7>
  401583:	48 8b 15 1e 5f 00 00 	mov    0x5f1e(%rip),%rdx        # 4074a8 <optarg@@GLIBC_2.2.5>
  40158a:	48 8d 35 61 2c 00 00 	lea    0x2c61(%rip),%rsi        # 4041f2 <_IO_stdin_used+0x1f2>
  401591:	48 8b 3d 28 5f 00 00 	mov    0x5f28(%rip),%rdi        # 4074c0 <stderr@@GLIBC_2.2.5>
  401598:	e8 83 fb ff ff       	callq  401120 <fprintf@plt>
  40159d:	b8 01 00 00 00       	mov    $0x1,%eax
  4015a2:	e9 ce 00 00 00       	jmpq   401675 <main+0x1ac>
  4015a7:	ba 10 00 00 00       	mov    $0x10,%edx
  4015ac:	be 00 00 00 00       	mov    $0x0,%esi
  4015b1:	48 8b 3d f0 5e 00 00 	mov    0x5ef0(%rip),%rdi        # 4074a8 <optarg@@GLIBC_2.2.5>
  4015b8:	e8 03 fc ff ff       	callq  4011c0 <strtoul@plt>
  4015bd:	41 89 c6             	mov    %eax,%r14d
  4015c0:	4c 89 e2             	mov    %r12,%rdx
  4015c3:	48 89 de             	mov    %rbx,%rsi
  4015c6:	89 ef                	mov    %ebp,%edi
  4015c8:	e8 e3 fb ff ff       	callq  4011b0 <getopt@plt>
  4015cd:	3c ff                	cmp    $0xff,%al
  4015cf:	74 5d                	je     40162e <main+0x165>
  4015d1:	0f be f0             	movsbl %al,%esi
  4015d4:	83 e8 61             	sub    $0x61,%eax
  4015d7:	3c 10                	cmp    $0x10,%al
  4015d9:	77 3a                	ja     401615 <main+0x14c>
  4015db:	0f b6 c0             	movzbl %al,%eax
  4015de:	48 8d 15 4b 2c 00 00 	lea    0x2c4b(%rip),%rdx        # 404230 <_IO_stdin_used+0x230>
  4015e5:	48 63 04 82          	movslq (%rdx,%rax,4),%rax
  4015e9:	48 01 d0             	add    %rdx,%rax
  4015ec:	ff e0                	jmpq   *%rax
  4015ee:	ba 0a 00 00 00       	mov    $0xa,%edx
  4015f3:	be 00 00 00 00       	mov    $0x0,%esi
  4015f8:	48 8b 3d a9 5e 00 00 	mov    0x5ea9(%rip),%rdi        # 4074a8 <optarg@@GLIBC_2.2.5>
  4015ff:	e8 2c fb ff ff       	callq  401130 <strtol@plt>
  401604:	41 89 c5             	mov    %eax,%r13d
  401607:	eb b7                	jmp    4015c0 <main+0xf7>
  401609:	c7 05 75 5e 00 00 00 	movl   $0x0,0x5e75(%rip)        # 407488 <notify>
  401610:	00 00 00 
  401613:	eb ab                	jmp    4015c0 <main+0xf7>
  401615:	48 8d 3d f3 2b 00 00 	lea    0x2bf3(%rip),%rdi        # 40420f <_IO_stdin_used+0x20f>
  40161c:	b8 00 00 00 00       	mov    $0x0,%eax
  401621:	e8 8a fa ff ff       	callq  4010b0 <printf@plt>
  401626:	48 8b 3b             	mov    (%rbx),%rdi
  401629:	e8 e4 fc ff ff       	callq  401312 <usage>
  40162e:	be 01 00 00 00       	mov    $0x1,%esi
  401633:	44 89 ef             	mov    %r13d,%edi
  401636:	e8 69 fd ff ff       	callq  4013a4 <initialize_target>
  40163b:	83 3d c6 5e 00 00 00 	cmpl   $0x0,0x5ec6(%rip)        # 407508 <is_checker>
  401642:	74 09                	je     40164d <main+0x184>
  401644:	44 39 35 b5 5e 00 00 	cmp    %r14d,0x5eb5(%rip)        # 407500 <authkey>
  40164b:	75 31                	jne    40167e <main+0x1b5>
  40164d:	8b 35 b1 5e 00 00    	mov    0x5eb1(%rip),%esi        # 407504 <cookie>
  401653:	48 8d 3d c8 2b 00 00 	lea    0x2bc8(%rip),%rdi        # 404222 <_IO_stdin_used+0x222>
  40165a:	b8 00 00 00 00       	mov    $0x0,%eax
  40165f:	e8 4c fa ff ff       	callq  4010b0 <printf@plt>
  401664:	48 8b 3d 15 5e 00 00 	mov    0x5e15(%rip),%rdi        # 407480 <buf_offset>
  40166b:	e8 5f 0d 00 00       	callq  4023cf <launch>
  401670:	b8 00 00 00 00       	mov    $0x0,%eax
  401675:	5b                   	pop    %rbx
  401676:	5d                   	pop    %rbp
  401677:	41 5c                	pop    %r12
  401679:	41 5d                	pop    %r13
  40167b:	41 5e                	pop    %r14
  40167d:	c3                   	retq   
  40167e:	44 89 f6             	mov    %r14d,%esi
  401681:	48 8d 3d c0 2a 00 00 	lea    0x2ac0(%rip),%rdi        # 404148 <_IO_stdin_used+0x148>
  401688:	b8 00 00 00 00       	mov    $0x0,%eax
  40168d:	e8 1e fa ff ff       	callq  4010b0 <printf@plt>
  401692:	b8 00 00 00 00       	mov    $0x0,%eax
  401697:	e8 b9 08 00 00       	callq  401f55 <check_fail>
  40169c:	eb af                	jmp    40164d <main+0x184>

000000000040169e <scramble>:
  40169e:	b8 00 00 00 00       	mov    $0x0,%eax
  4016a3:	83 f8 09             	cmp    $0x9,%eax
  4016a6:	77 13                	ja     4016bb <scramble+0x1d>
  4016a8:	69 d0 ad b3 00 00    	imul   $0xb3ad,%eax,%edx
  4016ae:	01 fa                	add    %edi,%edx
  4016b0:	89 c1                	mov    %eax,%ecx
  4016b2:	89 54 8c d0          	mov    %edx,-0x30(%rsp,%rcx,4)
  4016b6:	83 c0 01             	add    $0x1,%eax
  4016b9:	eb e8                	jmp    4016a3 <scramble+0x5>
  4016bb:	8b 44 24 ec          	mov    -0x14(%rsp),%eax
  4016bf:	69 c0 7f e8 00 00    	imul   $0xe87f,%eax,%eax
  4016c5:	89 44 24 ec          	mov    %eax,-0x14(%rsp)
  4016c9:	8b 44 24 f4          	mov    -0xc(%rsp),%eax
  4016cd:	69 c0 9f 5b 00 00    	imul   $0x5b9f,%eax,%eax
  4016d3:	89 44 24 f4          	mov    %eax,-0xc(%rsp)
  4016d7:	8b 44 24 d4          	mov    -0x2c(%rsp),%eax
  4016db:	69 c0 f1 4a 00 00    	imul   $0x4af1,%eax,%eax
  4016e1:	89 44 24 d4          	mov    %eax,-0x2c(%rsp)
  4016e5:	8b 44 24 ec          	mov    -0x14(%rsp),%eax
  4016e9:	69 c0 79 f5 00 00    	imul   $0xf579,%eax,%eax
  4016ef:	89 44 24 ec          	mov    %eax,-0x14(%rsp)
  4016f3:	8b 44 24 e4          	mov    -0x1c(%rsp),%eax
  4016f7:	69 c0 39 20 00 00    	imul   $0x2039,%eax,%eax
  4016fd:	89 44 24 e4          	mov    %eax,-0x1c(%rsp)
  401701:	8b 44 24 e8          	mov    -0x18(%rsp),%eax
  401705:	69 c0 93 33 00 00    	imul   $0x3393,%eax,%eax
  40170b:	89 44 24 e8          	mov    %eax,-0x18(%rsp)
  40170f:	8b 44 24 f0          	mov    -0x10(%rsp),%eax
  401713:	69 c0 ae cd 00 00    	imul   $0xcdae,%eax,%eax
  401719:	89 44 24 f0          	mov    %eax,-0x10(%rsp)
  40171d:	8b 44 24 ec          	mov    -0x14(%rsp),%eax
  401721:	69 c0 b0 c5 00 00    	imul   $0xc5b0,%eax,%eax
  401727:	89 44 24 ec          	mov    %eax,-0x14(%rsp)
  40172b:	8b 44 24 dc          	mov    -0x24(%rsp),%eax
  40172f:	69 c0 7a 2a 00 00    	imul   $0x2a7a,%eax,%eax
  401735:	89 44 24 dc          	mov    %eax,-0x24(%rsp)
  401739:	8b 44 24 d4          	mov    -0x2c(%rsp),%eax
  40173d:	69 c0 f2 72 00 00    	imul   $0x72f2,%eax,%eax
  401743:	89 44 24 d4          	mov    %eax,-0x2c(%rsp)
  401747:	8b 44 24 f0          	mov    -0x10(%rsp),%eax
  40174b:	69 c0 e5 76 00 00    	imul   $0x76e5,%eax,%eax
  401751:	89 44 24 f0          	mov    %eax,-0x10(%rsp)
  401755:	8b 44 24 dc          	mov    -0x24(%rsp),%eax
  401759:	69 c0 23 e9 00 00    	imul   $0xe923,%eax,%eax
  40175f:	89 44 24 dc          	mov    %eax,-0x24(%rsp)
  401763:	8b 44 24 d0          	mov    -0x30(%rsp),%eax
  401767:	69 c0 d8 61 00 00    	imul   $0x61d8,%eax,%eax
  40176d:	89 44 24 d0          	mov    %eax,-0x30(%rsp)
  401771:	8b 44 24 f0          	mov    -0x10(%rsp),%eax
  401775:	69 c0 b7 83 00 00    	imul   $0x83b7,%eax,%eax
  40177b:	89 44 24 f0          	mov    %eax,-0x10(%rsp)
  40177f:	8b 44 24 ec          	mov    -0x14(%rsp),%eax
  401783:	69 c0 ec a3 00 00    	imul   $0xa3ec,%eax,%eax
  401789:	89 44 24 ec          	mov    %eax,-0x14(%rsp)
  40178d:	8b 44 24 e8          	mov    -0x18(%rsp),%eax
  401791:	69 c0 88 d5 00 00    	imul   $0xd588,%eax,%eax
  401797:	89 44 24 e8          	mov    %eax,-0x18(%rsp)
  40179b:	8b 44 24 ec          	mov    -0x14(%rsp),%eax
  40179f:	69 c0 74 60 00 00    	imul   $0x6074,%eax,%eax
  4017a5:	89 44 24 ec          	mov    %eax,-0x14(%rsp)
  4017a9:	8b 44 24 d4          	mov    -0x2c(%rsp),%eax
  4017ad:	69 c0 7b e4 00 00    	imul   $0xe47b,%eax,%eax
  4017b3:	89 44 24 d4          	mov    %eax,-0x2c(%rsp)
  4017b7:	8b 44 24 d4          	mov    -0x2c(%rsp),%eax
  4017bb:	69 c0 8e 4a 00 00    	imul   $0x4a8e,%eax,%eax
  4017c1:	89 44 24 d4          	mov    %eax,-0x2c(%rsp)
  4017c5:	8b 44 24 d4          	mov    -0x2c(%rsp),%eax
  4017c9:	69 c0 1d 49 00 00    	imul   $0x491d,%eax,%eax
  4017cf:	89 44 24 d4          	mov    %eax,-0x2c(%rsp)
  4017d3:	8b 44 24 d0          	mov    -0x30(%rsp),%eax
  4017d7:	69 c0 d2 2a 00 00    	imul   $0x2ad2,%eax,%eax
  4017dd:	89 44 24 d0          	mov    %eax,-0x30(%rsp)
  4017e1:	8b 44 24 d0          	mov    -0x30(%rsp),%eax
  4017e5:	69 c0 4f 75 00 00    	imul   $0x754f,%eax,%eax
  4017eb:	89 44 24 d0          	mov    %eax,-0x30(%rsp)
  4017ef:	8b 44 24 ec          	mov    -0x14(%rsp),%eax
  4017f3:	69 c0 9a 86 00 00    	imul   $0x869a,%eax,%eax
  4017f9:	89 44 24 ec          	mov    %eax,-0x14(%rsp)
  4017fd:	8b 44 24 e0          	mov    -0x20(%rsp),%eax
  401801:	69 c0 bd f7 00 00    	imul   $0xf7bd,%eax,%eax
  401807:	89 44 24 e0          	mov    %eax,-0x20(%rsp)
  40180b:	8b 44 24 e4          	mov    -0x1c(%rsp),%eax
  40180f:	69 c0 06 d7 00 00    	imul   $0xd706,%eax,%eax
  401815:	89 44 24 e4          	mov    %eax,-0x1c(%rsp)
  401819:	8b 44 24 e4          	mov    -0x1c(%rsp),%eax
  40181d:	69 c0 9d fd 00 00    	imul   $0xfd9d,%eax,%eax
  401823:	89 44 24 e4          	mov    %eax,-0x1c(%rsp)
  401827:	8b 44 24 d0          	mov    -0x30(%rsp),%eax
  40182b:	69 c0 e4 5e 00 00    	imul   $0x5ee4,%eax,%eax
  401831:	89 44 24 d0          	mov    %eax,-0x30(%rsp)
  401835:	8b 44 24 e0          	mov    -0x20(%rsp),%eax
  401839:	69 c0 41 1f 00 00    	imul   $0x1f41,%eax,%eax
  40183f:	89 44 24 e0          	mov    %eax,-0x20(%rsp)
  401843:	8b 44 24 d0          	mov    -0x30(%rsp),%eax
  401847:	69 c0 0e d6 00 00    	imul   $0xd60e,%eax,%eax
  40184d:	89 44 24 d0          	mov    %eax,-0x30(%rsp)
  401851:	8b 44 24 f4          	mov    -0xc(%rsp),%eax
  401855:	69 c0 96 e2 00 00    	imul   $0xe296,%eax,%eax
  40185b:	89 44 24 f4          	mov    %eax,-0xc(%rsp)
  40185f:	8b 44 24 f0          	mov    -0x10(%rsp),%eax
  401863:	69 c0 69 b2 00 00    	imul   $0xb269,%eax,%eax
  401869:	89 44 24 f0          	mov    %eax,-0x10(%rsp)
  40186d:	8b 44 24 e4          	mov    -0x1c(%rsp),%eax
  401871:	69 c0 67 06 00 00    	imul   $0x667,%eax,%eax
  401877:	89 44 24 e4          	mov    %eax,-0x1c(%rsp)
  40187b:	8b 44 24 d8          	mov    -0x28(%rsp),%eax
  40187f:	69 c0 45 e9 00 00    	imul   $0xe945,%eax,%eax
  401885:	89 44 24 d8          	mov    %eax,-0x28(%rsp)
  401889:	8b 44 24 e4          	mov    -0x1c(%rsp),%eax
  40188d:	69 c0 43 be 00 00    	imul   $0xbe43,%eax,%eax
  401893:	89 44 24 e4          	mov    %eax,-0x1c(%rsp)
  401897:	8b 44 24 d0          	mov    -0x30(%rsp),%eax
  40189b:	69 c0 d7 c4 00 00    	imul   $0xc4d7,%eax,%eax
  4018a1:	89 44 24 d0          	mov    %eax,-0x30(%rsp)
  4018a5:	8b 44 24 d4          	mov    -0x2c(%rsp),%eax
  4018a9:	69 c0 9a 9e 00 00    	imul   $0x9e9a,%eax,%eax
  4018af:	89 44 24 d4          	mov    %eax,-0x2c(%rsp)
  4018b3:	8b 44 24 e8          	mov    -0x18(%rsp),%eax
  4018b7:	69 c0 10 84 00 00    	imul   $0x8410,%eax,%eax
  4018bd:	89 44 24 e8          	mov    %eax,-0x18(%rsp)
  4018c1:	8b 44 24 dc          	mov    -0x24(%rsp),%eax
  4018c5:	69 c0 2a e8 00 00    	imul   $0xe82a,%eax,%eax
  4018cb:	89 44 24 dc          	mov    %eax,-0x24(%rsp)
  4018cf:	8b 44 24 d4          	mov    -0x2c(%rsp),%eax
  4018d3:	69 c0 e9 4e 00 00    	imul   $0x4ee9,%eax,%eax
  4018d9:	89 44 24 d4          	mov    %eax,-0x2c(%rsp)
  4018dd:	8b 44 24 e0          	mov    -0x20(%rsp),%eax
  4018e1:	69 c0 bf bb 00 00    	imul   $0xbbbf,%eax,%eax
  4018e7:	89 44 24 e0          	mov    %eax,-0x20(%rsp)
  4018eb:	8b 44 24 e4          	mov    -0x1c(%rsp),%eax
  4018ef:	69 c0 97 4a 00 00    	imul   $0x4a97,%eax,%eax
  4018f5:	89 44 24 e4          	mov    %eax,-0x1c(%rsp)
  4018f9:	8b 44 24 dc          	mov    -0x24(%rsp),%eax
  4018fd:	69 c0 db 73 00 00    	imul   $0x73db,%eax,%eax
  401903:	89 44 24 dc          	mov    %eax,-0x24(%rsp)
  401907:	8b 44 24 d0          	mov    -0x30(%rsp),%eax
  40190b:	69 c0 1d a0 00 00    	imul   $0xa01d,%eax,%eax
  401911:	89 44 24 d0          	mov    %eax,-0x30(%rsp)
  401915:	8b 44 24 d0          	mov    -0x30(%rsp),%eax
  401919:	69 c0 37 6a 00 00    	imul   $0x6a37,%eax,%eax
  40191f:	89 44 24 d0          	mov    %eax,-0x30(%rsp)
  401923:	8b 44 24 d4          	mov    -0x2c(%rsp),%eax
  401927:	69 c0 15 36 00 00    	imul   $0x3615,%eax,%eax
  40192d:	89 44 24 d4          	mov    %eax,-0x2c(%rsp)
  401931:	8b 44 24 d0          	mov    -0x30(%rsp),%eax
  401935:	69 c0 27 f0 00 00    	imul   $0xf027,%eax,%eax
  40193b:	89 44 24 d0          	mov    %eax,-0x30(%rsp)
  40193f:	8b 44 24 e8          	mov    -0x18(%rsp),%eax
  401943:	69 c0 ec 04 00 00    	imul   $0x4ec,%eax,%eax
  401949:	89 44 24 e8          	mov    %eax,-0x18(%rsp)
  40194d:	8b 44 24 ec          	mov    -0x14(%rsp),%eax
  401951:	69 c0 5c fb 00 00    	imul   $0xfb5c,%eax,%eax
  401957:	89 44 24 ec          	mov    %eax,-0x14(%rsp)
  40195b:	8b 44 24 e4          	mov    -0x1c(%rsp),%eax
  40195f:	69 c0 70 e1 00 00    	imul   $0xe170,%eax,%eax
  401965:	89 44 24 e4          	mov    %eax,-0x1c(%rsp)
  401969:	8b 44 24 e0          	mov    -0x20(%rsp),%eax
  40196d:	69 c0 05 22 00 00    	imul   $0x2205,%eax,%eax
  401973:	89 44 24 e0          	mov    %eax,-0x20(%rsp)
  401977:	8b 44 24 d4          	mov    -0x2c(%rsp),%eax
  40197b:	69 c0 ff c0 00 00    	imul   $0xc0ff,%eax,%eax
  401981:	89 44 24 d4          	mov    %eax,-0x2c(%rsp)
  401985:	8b 44 24 ec          	mov    -0x14(%rsp),%eax
  401989:	69 c0 f1 95 00 00    	imul   $0x95f1,%eax,%eax
  40198f:	89 44 24 ec          	mov    %eax,-0x14(%rsp)
  401993:	8b 44 24 f4          	mov    -0xc(%rsp),%eax
  401997:	69 c0 89 d4 00 00    	imul   $0xd489,%eax,%eax
  40199d:	89 44 24 f4          	mov    %eax,-0xc(%rsp)
  4019a1:	8b 44 24 d4          	mov    -0x2c(%rsp),%eax
  4019a5:	69 c0 ba 4f 00 00    	imul   $0x4fba,%eax,%eax
  4019ab:	89 44 24 d4          	mov    %eax,-0x2c(%rsp)
  4019af:	8b 44 24 d0          	mov    -0x30(%rsp),%eax
  4019b3:	69 c0 03 5e 00 00    	imul   $0x5e03,%eax,%eax
  4019b9:	89 44 24 d0          	mov    %eax,-0x30(%rsp)
  4019bd:	8b 44 24 d0          	mov    -0x30(%rsp),%eax
  4019c1:	69 c0 63 49 00 00    	imul   $0x4963,%eax,%eax
  4019c7:	89 44 24 d0          	mov    %eax,-0x30(%rsp)
  4019cb:	8b 44 24 f0          	mov    -0x10(%rsp),%eax
  4019cf:	69 c0 d7 c4 00 00    	imul   $0xc4d7,%eax,%eax
  4019d5:	89 44 24 f0          	mov    %eax,-0x10(%rsp)
  4019d9:	8b 44 24 e0          	mov    -0x20(%rsp),%eax
  4019dd:	69 c0 15 52 00 00    	imul   $0x5215,%eax,%eax
  4019e3:	89 44 24 e0          	mov    %eax,-0x20(%rsp)
  4019e7:	8b 44 24 d8          	mov    -0x28(%rsp),%eax
  4019eb:	69 c0 5b 50 00 00    	imul   $0x505b,%eax,%eax
  4019f1:	89 44 24 d8          	mov    %eax,-0x28(%rsp)
  4019f5:	8b 44 24 d8          	mov    -0x28(%rsp),%eax
  4019f9:	69 c0 20 db 00 00    	imul   $0xdb20,%eax,%eax
  4019ff:	89 44 24 d8          	mov    %eax,-0x28(%rsp)
  401a03:	8b 44 24 dc          	mov    -0x24(%rsp),%eax
  401a07:	69 c0 19 09 00 00    	imul   $0x919,%eax,%eax
  401a0d:	89 44 24 dc          	mov    %eax,-0x24(%rsp)
  401a11:	8b 44 24 e4          	mov    -0x1c(%rsp),%eax
  401a15:	69 c0 ee 6e 00 00    	imul   $0x6eee,%eax,%eax
  401a1b:	89 44 24 e4          	mov    %eax,-0x1c(%rsp)
  401a1f:	8b 44 24 f0          	mov    -0x10(%rsp),%eax
  401a23:	69 c0 d5 c1 00 00    	imul   $0xc1d5,%eax,%eax
  401a29:	89 44 24 f0          	mov    %eax,-0x10(%rsp)
  401a2d:	8b 44 24 d0          	mov    -0x30(%rsp),%eax
  401a31:	69 c0 37 fc 00 00    	imul   $0xfc37,%eax,%eax
  401a37:	89 44 24 d0          	mov    %eax,-0x30(%rsp)
  401a3b:	8b 44 24 f0          	mov    -0x10(%rsp),%eax
  401a3f:	69 c0 e9 23 00 00    	imul   $0x23e9,%eax,%eax
  401a45:	89 44 24 f0          	mov    %eax,-0x10(%rsp)
  401a49:	8b 44 24 d0          	mov    -0x30(%rsp),%eax
  401a4d:	69 c0 8e 49 00 00    	imul   $0x498e,%eax,%eax
  401a53:	89 44 24 d0          	mov    %eax,-0x30(%rsp)
  401a57:	8b 44 24 d4          	mov    -0x2c(%rsp),%eax
  401a5b:	69 c0 db de 00 00    	imul   $0xdedb,%eax,%eax
  401a61:	89 44 24 d4          	mov    %eax,-0x2c(%rsp)
  401a65:	8b 44 24 f4          	mov    -0xc(%rsp),%eax
  401a69:	69 c0 f8 29 00 00    	imul   $0x29f8,%eax,%eax
  401a6f:	89 44 24 f4          	mov    %eax,-0xc(%rsp)
  401a73:	8b 44 24 d0          	mov    -0x30(%rsp),%eax
  401a77:	69 c0 9b 5d 00 00    	imul   $0x5d9b,%eax,%eax
  401a7d:	89 44 24 d0          	mov    %eax,-0x30(%rsp)
  401a81:	8b 44 24 e8          	mov    -0x18(%rsp),%eax
  401a85:	69 c0 d8 d6 00 00    	imul   $0xd6d8,%eax,%eax
  401a8b:	89 44 24 e8          	mov    %eax,-0x18(%rsp)
  401a8f:	8b 44 24 f4          	mov    -0xc(%rsp),%eax
  401a93:	69 c0 2c 85 00 00    	imul   $0x852c,%eax,%eax
  401a99:	89 44 24 f4          	mov    %eax,-0xc(%rsp)
  401a9d:	8b 44 24 ec          	mov    -0x14(%rsp),%eax
  401aa1:	69 c0 38 64 00 00    	imul   $0x6438,%eax,%eax
  401aa7:	89 44 24 ec          	mov    %eax,-0x14(%rsp)
  401aab:	8b 44 24 dc          	mov    -0x24(%rsp),%eax
  401aaf:	69 c0 79 dd 00 00    	imul   $0xdd79,%eax,%eax
  401ab5:	89 44 24 dc          	mov    %eax,-0x24(%rsp)
  401ab9:	8b 44 24 d0          	mov    -0x30(%rsp),%eax
  401abd:	69 c0 f8 ae 00 00    	imul   $0xaef8,%eax,%eax
  401ac3:	89 44 24 d0          	mov    %eax,-0x30(%rsp)
  401ac7:	8b 44 24 f0          	mov    -0x10(%rsp),%eax
  401acb:	69 c0 99 72 00 00    	imul   $0x7299,%eax,%eax
  401ad1:	89 44 24 f0          	mov    %eax,-0x10(%rsp)
  401ad5:	8b 44 24 d8          	mov    -0x28(%rsp),%eax
  401ad9:	69 c0 44 b4 00 00    	imul   $0xb444,%eax,%eax
  401adf:	89 44 24 d8          	mov    %eax,-0x28(%rsp)
  401ae3:	8b 44 24 e4          	mov    -0x1c(%rsp),%eax
  401ae7:	69 c0 60 55 00 00    	imul   $0x5560,%eax,%eax
  401aed:	89 44 24 e4          	mov    %eax,-0x1c(%rsp)
  401af1:	8b 44 24 dc          	mov    -0x24(%rsp),%eax
  401af5:	69 c0 b8 89 00 00    	imul   $0x89b8,%eax,%eax
  401afb:	89 44 24 dc          	mov    %eax,-0x24(%rsp)
  401aff:	8b 44 24 dc          	mov    -0x24(%rsp),%eax
  401b03:	69 c0 7d 8d 00 00    	imul   $0x8d7d,%eax,%eax
  401b09:	89 44 24 dc          	mov    %eax,-0x24(%rsp)
  401b0d:	8b 44 24 d4          	mov    -0x2c(%rsp),%eax
  401b11:	69 c0 7b ba 00 00    	imul   $0xba7b,%eax,%eax
  401b17:	89 44 24 d4          	mov    %eax,-0x2c(%rsp)
  401b1b:	8b 44 24 d4          	mov    -0x2c(%rsp),%eax
  401b1f:	69 c0 2b a4 00 00    	imul   $0xa42b,%eax,%eax
  401b25:	89 44 24 d4          	mov    %eax,-0x2c(%rsp)
  401b29:	8b 44 24 e0          	mov    -0x20(%rsp),%eax
  401b2d:	69 c0 4f 96 00 00    	imul   $0x964f,%eax,%eax
  401b33:	89 44 24 e0          	mov    %eax,-0x20(%rsp)
  401b37:	8b 44 24 f4          	mov    -0xc(%rsp),%eax
  401b3b:	69 c0 89 e3 00 00    	imul   $0xe389,%eax,%eax
  401b41:	89 44 24 f4          	mov    %eax,-0xc(%rsp)
  401b45:	8b 44 24 f0          	mov    -0x10(%rsp),%eax
  401b49:	69 c0 6b 36 00 00    	imul   $0x366b,%eax,%eax
  401b4f:	89 44 24 f0          	mov    %eax,-0x10(%rsp)
  401b53:	8b 44 24 ec          	mov    -0x14(%rsp),%eax
  401b57:	69 c0 fa 39 00 00    	imul   $0x39fa,%eax,%eax
  401b5d:	89 44 24 ec          	mov    %eax,-0x14(%rsp)
  401b61:	8b 44 24 d8          	mov    -0x28(%rsp),%eax
  401b65:	69 c0 c2 fc 00 00    	imul   $0xfcc2,%eax,%eax
  401b6b:	89 44 24 d8          	mov    %eax,-0x28(%rsp)
  401b6f:	8b 44 24 d8          	mov    -0x28(%rsp),%eax
  401b73:	69 c0 7e 2d 00 00    	imul   $0x2d7e,%eax,%eax
  401b79:	89 44 24 d8          	mov    %eax,-0x28(%rsp)
  401b7d:	8b 44 24 d0          	mov    -0x30(%rsp),%eax
  401b81:	69 c0 2a 09 00 00    	imul   $0x92a,%eax,%eax
  401b87:	89 44 24 d0          	mov    %eax,-0x30(%rsp)
  401b8b:	8b 44 24 e0          	mov    -0x20(%rsp),%eax
  401b8f:	69 c0 47 17 00 00    	imul   $0x1747,%eax,%eax
  401b95:	89 44 24 e0          	mov    %eax,-0x20(%rsp)
  401b99:	8b 44 24 e0          	mov    -0x20(%rsp),%eax
  401b9d:	69 c0 cc 38 00 00    	imul   $0x38cc,%eax,%eax
  401ba3:	89 44 24 e0          	mov    %eax,-0x20(%rsp)
  401ba7:	8b 44 24 dc          	mov    -0x24(%rsp),%eax
  401bab:	69 c0 3a 42 00 00    	imul   $0x423a,%eax,%eax
  401bb1:	89 44 24 dc          	mov    %eax,-0x24(%rsp)
  401bb5:	8b 44 24 e8          	mov    -0x18(%rsp),%eax
  401bb9:	69 c0 92 05 00 00    	imul   $0x592,%eax,%eax
  401bbf:	89 44 24 e8          	mov    %eax,-0x18(%rsp)
  401bc3:	8b 44 24 e0          	mov    -0x20(%rsp),%eax
  401bc7:	69 c0 44 10 00 00    	imul   $0x1044,%eax,%eax
  401bcd:	89 44 24 e0          	mov    %eax,-0x20(%rsp)
  401bd1:	8b 44 24 ec          	mov    -0x14(%rsp),%eax
  401bd5:	69 c0 d0 ae 00 00    	imul   $0xaed0,%eax,%eax
  401bdb:	89 44 24 ec          	mov    %eax,-0x14(%rsp)
  401bdf:	8b 44 24 f4          	mov    -0xc(%rsp),%eax
  401be3:	69 c0 39 15 00 00    	imul   $0x1539,%eax,%eax
  401be9:	89 44 24 f4          	mov    %eax,-0xc(%rsp)
  401bed:	8b 44 24 e0          	mov    -0x20(%rsp),%eax
  401bf1:	69 c0 28 4f 00 00    	imul   $0x4f28,%eax,%eax
  401bf7:	89 44 24 e0          	mov    %eax,-0x20(%rsp)
  401bfb:	ba 00 00 00 00       	mov    $0x0,%edx
  401c00:	b8 00 00 00 00       	mov    $0x0,%eax
  401c05:	83 fa 09             	cmp    $0x9,%edx
  401c08:	77 0d                	ja     401c17 <scramble+0x579>
  401c0a:	89 d1                	mov    %edx,%ecx
  401c0c:	8b 4c 8c d0          	mov    -0x30(%rsp,%rcx,4),%ecx
  401c10:	01 c8                	add    %ecx,%eax
  401c12:	83 c2 01             	add    $0x1,%edx
  401c15:	eb ee                	jmp    401c05 <scramble+0x567>
  401c17:	c3                   	retq   

0000000000401c18 <getbuf>:
  401c18:	48 83 ec 28          	sub    $0x28,%rsp
  401c1c:	48 89 e7             	mov    %rsp,%rdi
  401c1f:	e8 64 03 00 00       	callq  401f88 <Gets>
  401c24:	b8 01 00 00 00       	mov    $0x1,%eax
  401c29:	48 83 c4 28          	add    $0x28,%rsp
  401c2d:	c3                   	retq   

0000000000401c2e <touch1>:
  401c2e:	48 83 ec 08          	sub    $0x8,%rsp
  401c32:	c7 05 c0 58 00 00 01 	movl   $0x1,0x58c0(%rip)        # 4074fc <vlevel>
  401c39:	00 00 00 
  401c3c:	48 8d 3d 88 26 00 00 	lea    0x2688(%rip),%rdi        # 4042cb <_IO_stdin_used+0x2cb>
  401c43:	e8 38 f4 ff ff       	callq  401080 <puts@plt>
  401c48:	bf 01 00 00 00       	mov    $0x1,%edi
  401c4d:	e8 49 05 00 00       	callq  40219b <validate>
  401c52:	bf 00 00 00 00       	mov    $0x0,%edi
  401c57:	e8 94 f5 ff ff       	callq  4011f0 <exit@plt>

0000000000401c5c <touch2>:
  401c5c:	48 83 ec 08          	sub    $0x8,%rsp
  401c60:	89 fe                	mov    %edi,%esi
  401c62:	c7 05 90 58 00 00 02 	movl   $0x2,0x5890(%rip)        # 4074fc <vlevel>
  401c69:	00 00 00 
  401c6c:	39 3d 92 58 00 00    	cmp    %edi,0x5892(%rip)        # 407504 <cookie>
  401c72:	74 25                	je     401c99 <touch2+0x3d>
  401c74:	48 8d 3d 9d 26 00 00 	lea    0x269d(%rip),%rdi        # 404318 <_IO_stdin_used+0x318>
  401c7b:	b8 00 00 00 00       	mov    $0x0,%eax
  401c80:	e8 2b f4 ff ff       	callq  4010b0 <printf@plt>
  401c85:	bf 02 00 00 00       	mov    $0x2,%edi
  401c8a:	e8 ca 05 00 00       	callq  402259 <fail>
  401c8f:	bf 00 00 00 00       	mov    $0x0,%edi
  401c94:	e8 57 f5 ff ff       	callq  4011f0 <exit@plt>
  401c99:	48 8d 3d 50 26 00 00 	lea    0x2650(%rip),%rdi        # 4042f0 <_IO_stdin_used+0x2f0>
  401ca0:	b8 00 00 00 00       	mov    $0x0,%eax
  401ca5:	e8 06 f4 ff ff       	callq  4010b0 <printf@plt>
  401caa:	bf 02 00 00 00       	mov    $0x2,%edi
  401caf:	e8 e7 04 00 00       	callq  40219b <validate>
  401cb4:	eb d9                	jmp    401c8f <touch2+0x33>

0000000000401cb6 <hexmatch>:
  401cb6:	41 54                	push   %r12
  401cb8:	55                   	push   %rbp
  401cb9:	53                   	push   %rbx
  401cba:	48 83 ec 70          	sub    $0x70,%rsp
  401cbe:	89 fd                	mov    %edi,%ebp
  401cc0:	48 89 f3             	mov    %rsi,%rbx
  401cc3:	e8 98 f4 ff ff       	callq  401160 <random@plt>
  401cc8:	48 89 c1             	mov    %rax,%rcx
  401ccb:	48 ba 0b d7 a3 70 3d 	movabs $0xa3d70a3d70a3d70b,%rdx
  401cd2:	0a d7 a3 
  401cd5:	48 f7 ea             	imul   %rdx
  401cd8:	48 01 ca             	add    %rcx,%rdx
  401cdb:	48 c1 fa 06          	sar    $0x6,%rdx
  401cdf:	48 89 c8             	mov    %rcx,%rax
  401ce2:	48 c1 f8 3f          	sar    $0x3f,%rax
  401ce6:	48 29 c2             	sub    %rax,%rdx
  401ce9:	48 8d 04 92          	lea    (%rdx,%rdx,4),%rax
  401ced:	48 8d 14 80          	lea    (%rax,%rax,4),%rdx
  401cf1:	48 8d 04 95 00 00 00 	lea    0x0(,%rdx,4),%rax
  401cf8:	00 
  401cf9:	48 29 c1             	sub    %rax,%rcx
  401cfc:	4c 8d 24 0c          	lea    (%rsp,%rcx,1),%r12
  401d00:	89 ea                	mov    %ebp,%edx
  401d02:	48 8d 35 df 25 00 00 	lea    0x25df(%rip),%rsi        # 4042e8 <_IO_stdin_used+0x2e8>
  401d09:	4c 89 e7             	mov    %r12,%rdi
  401d0c:	b8 00 00 00 00       	mov    $0x0,%eax
  401d11:	e8 ca f4 ff ff       	callq  4011e0 <sprintf@plt>
  401d16:	ba 09 00 00 00       	mov    $0x9,%edx
  401d1b:	4c 89 e6             	mov    %r12,%rsi
  401d1e:	48 89 df             	mov    %rbx,%rdi
  401d21:	e8 3a f3 ff ff       	callq  401060 <strncmp@plt>
  401d26:	85 c0                	test   %eax,%eax
  401d28:	0f 94 c0             	sete   %al
  401d2b:	0f b6 c0             	movzbl %al,%eax
  401d2e:	48 83 c4 70          	add    $0x70,%rsp
  401d32:	5b                   	pop    %rbx
  401d33:	5d                   	pop    %rbp
  401d34:	41 5c                	pop    %r12
  401d36:	c3                   	retq   

0000000000401d37 <touch3>:
  401d37:	53                   	push   %rbx
  401d38:	48 89 fb             	mov    %rdi,%rbx
  401d3b:	c7 05 b7 57 00 00 03 	movl   $0x3,0x57b7(%rip)        # 4074fc <vlevel>
  401d42:	00 00 00 
  401d45:	48 89 fe             	mov    %rdi,%rsi
  401d48:	8b 3d b6 57 00 00    	mov    0x57b6(%rip),%edi        # 407504 <cookie>
  401d4e:	e8 63 ff ff ff       	callq  401cb6 <hexmatch>
  401d53:	85 c0                	test   %eax,%eax
  401d55:	74 28                	je     401d7f <touch3+0x48>
  401d57:	48 89 de             	mov    %rbx,%rsi
  401d5a:	48 8d 3d df 25 00 00 	lea    0x25df(%rip),%rdi        # 404340 <_IO_stdin_used+0x340>
  401d61:	b8 00 00 00 00       	mov    $0x0,%eax
  401d66:	e8 45 f3 ff ff       	callq  4010b0 <printf@plt>
  401d6b:	bf 03 00 00 00       	mov    $0x3,%edi
  401d70:	e8 26 04 00 00       	callq  40219b <validate>
  401d75:	bf 00 00 00 00       	mov    $0x0,%edi
  401d7a:	e8 71 f4 ff ff       	callq  4011f0 <exit@plt>
  401d7f:	48 89 de             	mov    %rbx,%rsi
  401d82:	48 8d 3d df 25 00 00 	lea    0x25df(%rip),%rdi        # 404368 <_IO_stdin_used+0x368>
  401d89:	b8 00 00 00 00       	mov    $0x0,%eax
  401d8e:	e8 1d f3 ff ff       	callq  4010b0 <printf@plt>
  401d93:	bf 03 00 00 00       	mov    $0x3,%edi
  401d98:	e8 bc 04 00 00       	callq  402259 <fail>
  401d9d:	eb d6                	jmp    401d75 <touch3+0x3e>

0000000000401d9f <test>:
  401d9f:	48 83 ec 08          	sub    $0x8,%rsp
  401da3:	b8 00 00 00 00       	mov    $0x0,%eax
  401da8:	e8 6b fe ff ff       	callq  401c18 <getbuf>
  401dad:	89 c6                	mov    %eax,%esi
  401daf:	48 8d 3d da 25 00 00 	lea    0x25da(%rip),%rdi        # 404390 <_IO_stdin_used+0x390>
  401db6:	b8 00 00 00 00       	mov    $0x0,%eax
  401dbb:	e8 f0 f2 ff ff       	callq  4010b0 <printf@plt>
  401dc0:	48 83 c4 08          	add    $0x8,%rsp
  401dc4:	c3                   	retq   

0000000000401dc5 <start_farm>:
  401dc5:	b8 01 00 00 00       	mov    $0x1,%eax
  401dca:	c3                   	retq   

0000000000401dcb <setval_488>:
  401dcb:	c7 07 58 90 90 c3    	movl   $0xc3909058,(%rdi)
  401dd1:	c3                   	retq   

0000000000401dd2 <getval_169>:
  401dd2:	b8 2f 3d d8 90       	mov    $0x90d83d2f,%eax
  401dd7:	c3                   	retq   

0000000000401dd8 <setval_452>:
  401dd8:	c7 07 48 89 c7 c3    	movl   $0xc3c78948,(%rdi)
  401dde:	c3                   	retq   

0000000000401ddf <setval_121>:
  401ddf:	c7 07 48 89 c7 c1    	movl   $0xc1c78948,(%rdi)
  401de5:	c3                   	retq   

0000000000401de6 <addval_166>:
  401de6:	8d 87 7e 48 89 c7    	lea    -0x3876b782(%rdi),%eax
  401dec:	c3                   	retq   

0000000000401ded <getval_414>:
  401ded:	b8 48 88 c7 90       	mov    $0x90c78848,%eax
  401df2:	c3                   	retq   

0000000000401df3 <getval_137>:
  401df3:	b8 c3 58 c3 9f       	mov    $0x9fc358c3,%eax
  401df8:	c3                   	retq   

0000000000401df9 <getval_347>:
  401df9:	b8 58 c2 6f 4f       	mov    $0x4f6fc258,%eax
  401dfe:	c3                   	retq   

0000000000401dff <mid_farm>:
  401dff:	b8 01 00 00 00       	mov    $0x1,%eax
  401e04:	c3                   	retq   

0000000000401e05 <add_xy>:
  401e05:	48 8d 04 37          	lea    (%rdi,%rsi,1),%rax
  401e09:	c3                   	retq   

0000000000401e0a <addval_461>:
  401e0a:	8d 87 48 89 e0 c7    	lea    -0x381f76b8(%rdi),%eax
  401e10:	c3                   	retq   

0000000000401e11 <addval_380>:
  401e11:	8d 87 89 ca 18 d2    	lea    -0x2de73577(%rdi),%eax
  401e17:	c3                   	retq   

0000000000401e18 <addval_294>:
  401e18:	8d 87 41 b6 81 c1    	lea    -0x3e7e49bf(%rdi),%eax
  401e1e:	c3                   	retq   

0000000000401e1f <addval_348>:
  401e1f:	8d 87 49 89 e0 c3    	lea    -0x3c1f76b7(%rdi),%eax
  401e25:	c3                   	retq   

0000000000401e26 <getval_228>:
  401e26:	b8 09 c1 08 c0       	mov    $0xc008c109,%eax
  401e2b:	c3                   	retq   

0000000000401e2c <setval_231>:
  401e2c:	c7 07 89 d6 a4 d2    	movl   $0xd2a4d689,(%rdi)
  401e32:	c3                   	retq   

0000000000401e33 <setval_113>:
  401e33:	c7 07 89 d6 60 c9    	movl   $0xc960d689,(%rdi)
  401e39:	c3                   	retq   

0000000000401e3a <getval_109>:
  401e3a:	b8 89 ca 78 c9       	mov    $0xc978ca89,%eax
  401e3f:	c3                   	retq   

0000000000401e40 <addval_401>:
  401e40:	8d 87 8d d6 08 db    	lea    -0x24f72973(%rdi),%eax
  401e46:	c3                   	retq   

0000000000401e47 <setval_473>:
  401e47:	c7 07 89 d6 18 c9    	movl   $0xc918d689,(%rdi)
  401e4d:	c3                   	retq   

0000000000401e4e <getval_220>:
  401e4e:	b8 48 89 e0 c7       	mov    $0xc7e08948,%eax
  401e53:	c3                   	retq   

0000000000401e54 <getval_300>:
  401e54:	b8 89 c1 20 c9       	mov    $0xc920c189,%eax
  401e59:	c3                   	retq   

0000000000401e5a <getval_292>:
  401e5a:	b8 8d c1 08 d2       	mov    $0xd208c18d,%eax
  401e5f:	c3                   	retq   

0000000000401e60 <addval_366>:
  401e60:	8d 87 a3 48 89 e0    	lea    -0x1f76b75d(%rdi),%eax
  401e66:	c3                   	retq   

0000000000401e67 <getval_407>:
  401e67:	b8 16 89 ca 92       	mov    $0x92ca8916,%eax
  401e6c:	c3                   	retq   

0000000000401e6d <setval_225>:
  401e6d:	c7 07 89 d6 08 d2    	movl   $0xd208d689,(%rdi)
  401e73:	c3                   	retq   

0000000000401e74 <setval_351>:
  401e74:	c7 07 dd 99 c1 c3    	movl   $0xc3c199dd,(%rdi)
  401e7a:	c3                   	retq   

0000000000401e7b <addval_272>:
  401e7b:	8d 87 48 89 e0 c7    	lea    -0x381f76b8(%rdi),%eax
  401e81:	c3                   	retq   

0000000000401e82 <setval_209>:
  401e82:	c7 07 89 ca 08 d2    	movl   $0xd208ca89,(%rdi)
  401e88:	c3                   	retq   

0000000000401e89 <addval_133>:
  401e89:	8d 87 99 d6 08 c9    	lea    -0x36f72967(%rdi),%eax
  401e8f:	c3                   	retq   

0000000000401e90 <setval_103>:
  401e90:	c7 07 49 89 e0 90    	movl   $0x90e08949,(%rdi)
  401e96:	c3                   	retq   

0000000000401e97 <addval_464>:
  401e97:	8d 87 8d ca 20 d2    	lea    -0x2ddf3573(%rdi),%eax
  401e9d:	c3                   	retq   

0000000000401e9e <getval_279>:
  401e9e:	b8 48 89 e0 90       	mov    $0x90e08948,%eax
  401ea3:	c3                   	retq   

0000000000401ea4 <getval_336>:
  401ea4:	b8 89 d6 30 c9       	mov    $0xc930d689,%eax
  401ea9:	c3                   	retq   

0000000000401eaa <addval_115>:
  401eaa:	8d 87 48 89 e0 c2    	lea    -0x3d1f76b8(%rdi),%eax
  401eb0:	c3                   	retq   

0000000000401eb1 <setval_128>:
  401eb1:	c7 07 09 ca 20 c9    	movl   $0xc920ca09,(%rdi)
  401eb7:	c3                   	retq   

0000000000401eb8 <setval_354>:
  401eb8:	c7 07 89 ca 08 c9    	movl   $0xc908ca89,(%rdi)
  401ebe:	c3                   	retq   

0000000000401ebf <setval_477>:
  401ebf:	c7 07 89 d6 38 db    	movl   $0xdb38d689,(%rdi)
  401ec5:	c3                   	retq   

0000000000401ec6 <getval_437>:
  401ec6:	b8 89 c1 48 c9       	mov    $0xc948c189,%eax
  401ecb:	c3                   	retq   

0000000000401ecc <addval_143>:
  401ecc:	8d 87 52 89 ca 91    	lea    -0x6e3576ae(%rdi),%eax
  401ed2:	c3                   	retq   

0000000000401ed3 <getval_362>:
  401ed3:	b8 35 89 c1 90       	mov    $0x90c18935,%eax
  401ed8:	c3                   	retq   

0000000000401ed9 <addval_375>:
  401ed9:	8d 87 99 c1 38 db    	lea    -0x24c73e67(%rdi),%eax
  401edf:	c3                   	retq   

0000000000401ee0 <end_farm>:
  401ee0:	b8 01 00 00 00       	mov    $0x1,%eax
  401ee5:	c3                   	retq   

0000000000401ee6 <save_char>:
  401ee6:	8b 05 38 62 00 00    	mov    0x6238(%rip),%eax        # 408124 <gets_cnt>
  401eec:	3d ff 03 00 00       	cmp    $0x3ff,%eax
  401ef1:	7f 4a                	jg     401f3d <save_char+0x57>
  401ef3:	89 f9                	mov    %edi,%ecx
  401ef5:	c0 e9 04             	shr    $0x4,%cl
  401ef8:	8d 14 40             	lea    (%rax,%rax,2),%edx
  401efb:	4c 8d 05 ae 27 00 00 	lea    0x27ae(%rip),%r8        # 4046b0 <trans_char>
  401f02:	83 e1 0f             	and    $0xf,%ecx
  401f05:	45 0f b6 0c 08       	movzbl (%r8,%rcx,1),%r9d
  401f0a:	48 8d 0d 0f 56 00 00 	lea    0x560f(%rip),%rcx        # 407520 <gets_buf>
  401f11:	48 63 f2             	movslq %edx,%rsi
  401f14:	44 88 0c 31          	mov    %r9b,(%rcx,%rsi,1)
  401f18:	8d 72 01             	lea    0x1(%rdx),%esi
  401f1b:	83 e7 0f             	and    $0xf,%edi
  401f1e:	41 0f b6 3c 38       	movzbl (%r8,%rdi,1),%edi
  401f23:	48 63 f6             	movslq %esi,%rsi
  401f26:	40 88 3c 31          	mov    %dil,(%rcx,%rsi,1)
  401f2a:	83 c2 02             	add    $0x2,%edx
  401f2d:	48 63 d2             	movslq %edx,%rdx
  401f30:	c6 04 11 20          	movb   $0x20,(%rcx,%rdx,1)
  401f34:	83 c0 01             	add    $0x1,%eax
  401f37:	89 05 e7 61 00 00    	mov    %eax,0x61e7(%rip)        # 408124 <gets_cnt>
  401f3d:	c3                   	retq   

0000000000401f3e <save_term>:
  401f3e:	8b 05 e0 61 00 00    	mov    0x61e0(%rip),%eax        # 408124 <gets_cnt>
  401f44:	8d 04 40             	lea    (%rax,%rax,2),%eax
  401f47:	48 98                	cltq   
  401f49:	48 8d 15 d0 55 00 00 	lea    0x55d0(%rip),%rdx        # 407520 <gets_buf>
  401f50:	c6 04 02 00          	movb   $0x0,(%rdx,%rax,1)
  401f54:	c3                   	retq   

0000000000401f55 <check_fail>:
  401f55:	48 83 ec 08          	sub    $0x8,%rsp
  401f59:	0f be 35 c8 61 00 00 	movsbl 0x61c8(%rip),%esi        # 408128 <target_prefix>
  401f60:	48 8d 0d b9 55 00 00 	lea    0x55b9(%rip),%rcx        # 407520 <gets_buf>
  401f67:	8b 15 8b 55 00 00    	mov    0x558b(%rip),%edx        # 4074f8 <check_level>
  401f6d:	48 8d 3d 3f 24 00 00 	lea    0x243f(%rip),%rdi        # 4043b3 <_IO_stdin_used+0x3b3>
  401f74:	b8 00 00 00 00       	mov    $0x0,%eax
  401f79:	e8 32 f1 ff ff       	callq  4010b0 <printf@plt>
  401f7e:	bf 01 00 00 00       	mov    $0x1,%edi
  401f83:	e8 68 f2 ff ff       	callq  4011f0 <exit@plt>

0000000000401f88 <Gets>:
  401f88:	41 54                	push   %r12
  401f8a:	55                   	push   %rbp
  401f8b:	53                   	push   %rbx
  401f8c:	49 89 fc             	mov    %rdi,%r12
  401f8f:	c7 05 8b 61 00 00 00 	movl   $0x0,0x618b(%rip)        # 408124 <gets_cnt>
  401f96:	00 00 00 
  401f99:	48 89 fb             	mov    %rdi,%rbx
  401f9c:	48 8b 3d 4d 55 00 00 	mov    0x554d(%rip),%rdi        # 4074f0 <infile>
  401fa3:	e8 68 f2 ff ff       	callq  401210 <getc@plt>
  401fa8:	83 f8 ff             	cmp    $0xffffffff,%eax
  401fab:	74 18                	je     401fc5 <Gets+0x3d>
  401fad:	83 f8 0a             	cmp    $0xa,%eax
  401fb0:	74 13                	je     401fc5 <Gets+0x3d>
  401fb2:	48 8d 6b 01          	lea    0x1(%rbx),%rbp
  401fb6:	88 03                	mov    %al,(%rbx)
  401fb8:	0f b6 f8             	movzbl %al,%edi
  401fbb:	e8 26 ff ff ff       	callq  401ee6 <save_char>
  401fc0:	48 89 eb             	mov    %rbp,%rbx
  401fc3:	eb d7                	jmp    401f9c <Gets+0x14>
  401fc5:	c6 03 00             	movb   $0x0,(%rbx)
  401fc8:	b8 00 00 00 00       	mov    $0x0,%eax
  401fcd:	e8 6c ff ff ff       	callq  401f3e <save_term>
  401fd2:	4c 89 e0             	mov    %r12,%rax
  401fd5:	5b                   	pop    %rbx
  401fd6:	5d                   	pop    %rbp
  401fd7:	41 5c                	pop    %r12
  401fd9:	c3                   	retq   

0000000000401fda <notify_server>:
  401fda:	83 3d 27 55 00 00 00 	cmpl   $0x0,0x5527(%rip)        # 407508 <is_checker>
  401fe1:	0f 85 b3 01 00 00    	jne    40219a <notify_server+0x1c0>
  401fe7:	55                   	push   %rbp
  401fe8:	53                   	push   %rbx
  401fe9:	48 81 ec 08 40 00 00 	sub    $0x4008,%rsp
  401ff0:	89 fb                	mov    %edi,%ebx
  401ff2:	81 3d 28 61 00 00 9c 	cmpl   $0x1f9c,0x6128(%rip)        # 408124 <gets_cnt>
  401ff9:	1f 00 00 
  401ffc:	0f 8f b8 00 00 00    	jg     4020ba <notify_server+0xe0>
  402002:	44 0f be 0d 1e 61 00 	movsbl 0x611e(%rip),%r9d        # 408128 <target_prefix>
  402009:	00 
  40200a:	83 3d 77 54 00 00 00 	cmpl   $0x0,0x5477(%rip)        # 407488 <notify>
  402011:	0f 84 be 00 00 00    	je     4020d5 <notify_server+0xfb>
  402017:	44 8b 05 e2 54 00 00 	mov    0x54e2(%rip),%r8d        # 407500 <authkey>
  40201e:	85 db                	test   %ebx,%ebx
  402020:	0f 84 ba 00 00 00    	je     4020e0 <notify_server+0x106>
  402026:	48 8d 2d a1 23 00 00 	lea    0x23a1(%rip),%rbp        # 4043ce <_IO_stdin_used+0x3ce>
  40202d:	48 8d bc 24 00 20 00 	lea    0x2000(%rsp),%rdi
  402034:	00 
  402035:	48 8d 05 e4 54 00 00 	lea    0x54e4(%rip),%rax        # 407520 <gets_buf>
  40203c:	50                   	push   %rax
  40203d:	56                   	push   %rsi
  40203e:	48 89 e9             	mov    %rbp,%rcx
  402041:	8b 15 e9 50 00 00    	mov    0x50e9(%rip),%edx        # 407130 <target_id>
  402047:	48 8d 35 85 23 00 00 	lea    0x2385(%rip),%rsi        # 4043d3 <_IO_stdin_used+0x3d3>
  40204e:	b8 00 00 00 00       	mov    $0x0,%eax
  402053:	e8 88 f1 ff ff       	callq  4011e0 <sprintf@plt>
  402058:	48 83 c4 10          	add    $0x10,%rsp
  40205c:	83 3d 25 54 00 00 00 	cmpl   $0x0,0x5425(%rip)        # 407488 <notify>
  402063:	0f 84 b7 00 00 00    	je     402120 <notify_server+0x146>
  402069:	85 db                	test   %ebx,%ebx
  40206b:	0f 84 99 00 00 00    	je     40210a <notify_server+0x130>
  402071:	48 8d 8c 24 00 20 00 	lea    0x2000(%rsp),%rcx
  402078:	00 
  402079:	49 89 e1             	mov    %rsp,%r9
  40207c:	41 b8 00 00 00 00    	mov    $0x0,%r8d
  402082:	48 8b 15 bf 50 00 00 	mov    0x50bf(%rip),%rdx        # 407148 <lab>
  402089:	48 8b 35 c0 50 00 00 	mov    0x50c0(%rip),%rsi        # 407150 <course>
  402090:	48 8b 3d a9 50 00 00 	mov    0x50a9(%rip),%rdi        # 407140 <user_id>
  402097:	e8 64 10 00 00       	callq  403100 <driver_post>
  40209c:	85 c0                	test   %eax,%eax
  40209e:	78 4c                	js     4020ec <notify_server+0x112>
  4020a0:	48 8d 3d 71 24 00 00 	lea    0x2471(%rip),%rdi        # 404518 <_IO_stdin_used+0x518>
  4020a7:	e8 d4 ef ff ff       	callq  401080 <puts@plt>
  4020ac:	48 8d 3d 48 23 00 00 	lea    0x2348(%rip),%rdi        # 4043fb <_IO_stdin_used+0x3fb>
  4020b3:	e8 c8 ef ff ff       	callq  401080 <puts@plt>
  4020b8:	eb 5c                	jmp    402116 <notify_server+0x13c>
  4020ba:	48 8d 3d 27 24 00 00 	lea    0x2427(%rip),%rdi        # 4044e8 <_IO_stdin_used+0x4e8>
  4020c1:	b8 00 00 00 00       	mov    $0x0,%eax
  4020c6:	e8 e5 ef ff ff       	callq  4010b0 <printf@plt>
  4020cb:	bf 01 00 00 00       	mov    $0x1,%edi
  4020d0:	e8 1b f1 ff ff       	callq  4011f0 <exit@plt>
  4020d5:	41 b8 ff ff ff ff    	mov    $0xffffffff,%r8d
  4020db:	e9 3e ff ff ff       	jmpq   40201e <notify_server+0x44>
  4020e0:	48 8d 2d e2 22 00 00 	lea    0x22e2(%rip),%rbp        # 4043c9 <_IO_stdin_used+0x3c9>
  4020e7:	e9 41 ff ff ff       	jmpq   40202d <notify_server+0x53>
  4020ec:	48 89 e6             	mov    %rsp,%rsi
  4020ef:	48 8d 3d f9 22 00 00 	lea    0x22f9(%rip),%rdi        # 4043ef <_IO_stdin_used+0x3ef>
  4020f6:	b8 00 00 00 00       	mov    $0x0,%eax
  4020fb:	e8 b0 ef ff ff       	callq  4010b0 <printf@plt>
  402100:	bf 01 00 00 00       	mov    $0x1,%edi
  402105:	e8 e6 f0 ff ff       	callq  4011f0 <exit@plt>
  40210a:	48 8d 3d f4 22 00 00 	lea    0x22f4(%rip),%rdi        # 404405 <_IO_stdin_used+0x405>
  402111:	e8 6a ef ff ff       	callq  401080 <puts@plt>
  402116:	48 81 c4 08 40 00 00 	add    $0x4008,%rsp
  40211d:	5b                   	pop    %rbx
  40211e:	5d                   	pop    %rbp
  40211f:	c3                   	retq   
  402120:	48 89 ee             	mov    %rbp,%rsi
  402123:	48 8d 3d 26 24 00 00 	lea    0x2426(%rip),%rdi        # 404550 <_IO_stdin_used+0x550>
  40212a:	b8 00 00 00 00       	mov    $0x0,%eax
  40212f:	e8 7c ef ff ff       	callq  4010b0 <printf@plt>
  402134:	48 8b 35 05 50 00 00 	mov    0x5005(%rip),%rsi        # 407140 <user_id>
  40213b:	48 8d 3d ca 22 00 00 	lea    0x22ca(%rip),%rdi        # 40440c <_IO_stdin_used+0x40c>
  402142:	b8 00 00 00 00       	mov    $0x0,%eax
  402147:	e8 64 ef ff ff       	callq  4010b0 <printf@plt>
  40214c:	48 8b 35 fd 4f 00 00 	mov    0x4ffd(%rip),%rsi        # 407150 <course>
  402153:	48 8d 3d bf 22 00 00 	lea    0x22bf(%rip),%rdi        # 404419 <_IO_stdin_used+0x419>
  40215a:	b8 00 00 00 00       	mov    $0x0,%eax
  40215f:	e8 4c ef ff ff       	callq  4010b0 <printf@plt>
  402164:	48 8b 35 dd 4f 00 00 	mov    0x4fdd(%rip),%rsi        # 407148 <lab>
  40216b:	48 8d 3d b3 22 00 00 	lea    0x22b3(%rip),%rdi        # 404425 <_IO_stdin_used+0x425>
  402172:	b8 00 00 00 00       	mov    $0x0,%eax
  402177:	e8 34 ef ff ff       	callq  4010b0 <printf@plt>
  40217c:	48 8d b4 24 00 20 00 	lea    0x2000(%rsp),%rsi
  402183:	00 
  402184:	48 8d 3d a3 22 00 00 	lea    0x22a3(%rip),%rdi        # 40442e <_IO_stdin_used+0x42e>
  40218b:	b8 00 00 00 00       	mov    $0x0,%eax
  402190:	e8 1b ef ff ff       	callq  4010b0 <printf@plt>
  402195:	e9 7c ff ff ff       	jmpq   402116 <notify_server+0x13c>
  40219a:	c3                   	retq   

000000000040219b <validate>:
  40219b:	53                   	push   %rbx
  40219c:	89 fb                	mov    %edi,%ebx
  40219e:	83 3d 63 53 00 00 00 	cmpl   $0x0,0x5363(%rip)        # 407508 <is_checker>
  4021a5:	74 68                	je     40220f <validate+0x74>
  4021a7:	39 3d 4f 53 00 00    	cmp    %edi,0x534f(%rip)        # 4074fc <vlevel>
  4021ad:	75 2d                	jne    4021dc <validate+0x41>
  4021af:	8b 35 43 53 00 00    	mov    0x5343(%rip),%esi        # 4074f8 <check_level>
  4021b5:	39 fe                	cmp    %edi,%esi
  4021b7:	75 39                	jne    4021f2 <validate+0x57>
  4021b9:	0f be 35 68 5f 00 00 	movsbl 0x5f68(%rip),%esi        # 408128 <target_prefix>
  4021c0:	48 8d 0d 59 53 00 00 	lea    0x5359(%rip),%rcx        # 407520 <gets_buf>
  4021c7:	89 fa                	mov    %edi,%edx
  4021c9:	48 8d 3d 88 22 00 00 	lea    0x2288(%rip),%rdi        # 404458 <_IO_stdin_used+0x458>
  4021d0:	b8 00 00 00 00       	mov    $0x0,%eax
  4021d5:	e8 d6 ee ff ff       	callq  4010b0 <printf@plt>
  4021da:	5b                   	pop    %rbx
  4021db:	c3                   	retq   
  4021dc:	48 8d 3d 57 22 00 00 	lea    0x2257(%rip),%rdi        # 40443a <_IO_stdin_used+0x43a>
  4021e3:	e8 98 ee ff ff       	callq  401080 <puts@plt>
  4021e8:	b8 00 00 00 00       	mov    $0x0,%eax
  4021ed:	e8 63 fd ff ff       	callq  401f55 <check_fail>
  4021f2:	89 fa                	mov    %edi,%edx
  4021f4:	48 8d 3d 7d 23 00 00 	lea    0x237d(%rip),%rdi        # 404578 <_IO_stdin_used+0x578>
  4021fb:	b8 00 00 00 00       	mov    $0x0,%eax
  402200:	e8 ab ee ff ff       	callq  4010b0 <printf@plt>
  402205:	b8 00 00 00 00       	mov    $0x0,%eax
  40220a:	e8 46 fd ff ff       	callq  401f55 <check_fail>
  40220f:	39 3d e7 52 00 00    	cmp    %edi,0x52e7(%rip)        # 4074fc <vlevel>
  402215:	74 1a                	je     402231 <validate+0x96>
  402217:	48 8d 3d 1c 22 00 00 	lea    0x221c(%rip),%rdi        # 40443a <_IO_stdin_used+0x43a>
  40221e:	e8 5d ee ff ff       	callq  401080 <puts@plt>
  402223:	89 de                	mov    %ebx,%esi
  402225:	bf 00 00 00 00       	mov    $0x0,%edi
  40222a:	e8 ab fd ff ff       	callq  401fda <notify_server>
  40222f:	eb a9                	jmp    4021da <validate+0x3f>
  402231:	0f be 15 f0 5e 00 00 	movsbl 0x5ef0(%rip),%edx        # 408128 <target_prefix>
  402238:	89 fe                	mov    %edi,%esi
  40223a:	48 8d 3d 5f 23 00 00 	lea    0x235f(%rip),%rdi        # 4045a0 <_IO_stdin_used+0x5a0>
  402241:	b8 00 00 00 00       	mov    $0x0,%eax
  402246:	e8 65 ee ff ff       	callq  4010b0 <printf@plt>
  40224b:	89 de                	mov    %ebx,%esi
  40224d:	bf 01 00 00 00       	mov    $0x1,%edi
  402252:	e8 83 fd ff ff       	callq  401fda <notify_server>
  402257:	eb 81                	jmp    4021da <validate+0x3f>

0000000000402259 <fail>:
  402259:	48 83 ec 08          	sub    $0x8,%rsp
  40225d:	83 3d a4 52 00 00 00 	cmpl   $0x0,0x52a4(%rip)        # 407508 <is_checker>
  402264:	75 11                	jne    402277 <fail+0x1e>
  402266:	89 fe                	mov    %edi,%esi
  402268:	bf 00 00 00 00       	mov    $0x0,%edi
  40226d:	e8 68 fd ff ff       	callq  401fda <notify_server>
  402272:	48 83 c4 08          	add    $0x8,%rsp
  402276:	c3                   	retq   
  402277:	b8 00 00 00 00       	mov    $0x0,%eax
  40227c:	e8 d4 fc ff ff       	callq  401f55 <check_fail>

0000000000402281 <bushandler>:
  402281:	48 83 ec 08          	sub    $0x8,%rsp
  402285:	83 3d 7c 52 00 00 00 	cmpl   $0x0,0x527c(%rip)        # 407508 <is_checker>
  40228c:	74 16                	je     4022a4 <bushandler+0x23>
  40228e:	48 8d 3d d8 21 00 00 	lea    0x21d8(%rip),%rdi        # 40446d <_IO_stdin_used+0x46d>
  402295:	e8 e6 ed ff ff       	callq  401080 <puts@plt>
  40229a:	b8 00 00 00 00       	mov    $0x0,%eax
  40229f:	e8 b1 fc ff ff       	callq  401f55 <check_fail>
  4022a4:	48 8d 3d 2d 23 00 00 	lea    0x232d(%rip),%rdi        # 4045d8 <_IO_stdin_used+0x5d8>
  4022ab:	e8 d0 ed ff ff       	callq  401080 <puts@plt>
  4022b0:	48 8d 3d c0 21 00 00 	lea    0x21c0(%rip),%rdi        # 404477 <_IO_stdin_used+0x477>
  4022b7:	e8 c4 ed ff ff       	callq  401080 <puts@plt>
  4022bc:	be 00 00 00 00       	mov    $0x0,%esi
  4022c1:	bf 00 00 00 00       	mov    $0x0,%edi
  4022c6:	e8 0f fd ff ff       	callq  401fda <notify_server>
  4022cb:	bf 01 00 00 00       	mov    $0x1,%edi
  4022d0:	e8 1b ef ff ff       	callq  4011f0 <exit@plt>

00000000004022d5 <seghandler>:
  4022d5:	48 83 ec 08          	sub    $0x8,%rsp
  4022d9:	83 3d 28 52 00 00 00 	cmpl   $0x0,0x5228(%rip)        # 407508 <is_checker>
  4022e0:	74 16                	je     4022f8 <seghandler+0x23>
  4022e2:	48 8d 3d a4 21 00 00 	lea    0x21a4(%rip),%rdi        # 40448d <_IO_stdin_used+0x48d>
  4022e9:	e8 92 ed ff ff       	callq  401080 <puts@plt>
  4022ee:	b8 00 00 00 00       	mov    $0x0,%eax
  4022f3:	e8 5d fc ff ff       	callq  401f55 <check_fail>
  4022f8:	48 8d 3d f9 22 00 00 	lea    0x22f9(%rip),%rdi        # 4045f8 <_IO_stdin_used+0x5f8>
  4022ff:	e8 7c ed ff ff       	callq  401080 <puts@plt>
  402304:	48 8d 3d 6c 21 00 00 	lea    0x216c(%rip),%rdi        # 404477 <_IO_stdin_used+0x477>
  40230b:	e8 70 ed ff ff       	callq  401080 <puts@plt>
  402310:	be 00 00 00 00       	mov    $0x0,%esi
  402315:	bf 00 00 00 00       	mov    $0x0,%edi
  40231a:	e8 bb fc ff ff       	callq  401fda <notify_server>
  40231f:	bf 01 00 00 00       	mov    $0x1,%edi
  402324:	e8 c7 ee ff ff       	callq  4011f0 <exit@plt>

0000000000402329 <illegalhandler>:
  402329:	48 83 ec 08          	sub    $0x8,%rsp
  40232d:	83 3d d4 51 00 00 00 	cmpl   $0x0,0x51d4(%rip)        # 407508 <is_checker>
  402334:	74 16                	je     40234c <illegalhandler+0x23>
  402336:	48 8d 3d 63 21 00 00 	lea    0x2163(%rip),%rdi        # 4044a0 <_IO_stdin_used+0x4a0>
  40233d:	e8 3e ed ff ff       	callq  401080 <puts@plt>
  402342:	b8 00 00 00 00       	mov    $0x0,%eax
  402347:	e8 09 fc ff ff       	callq  401f55 <check_fail>
  40234c:	48 8d 3d cd 22 00 00 	lea    0x22cd(%rip),%rdi        # 404620 <_IO_stdin_used+0x620>
  402353:	e8 28 ed ff ff       	callq  401080 <puts@plt>
  402358:	48 8d 3d 18 21 00 00 	lea    0x2118(%rip),%rdi        # 404477 <_IO_stdin_used+0x477>
  40235f:	e8 1c ed ff ff       	callq  401080 <puts@plt>
  402364:	be 00 00 00 00       	mov    $0x0,%esi
  402369:	bf 00 00 00 00       	mov    $0x0,%edi
  40236e:	e8 67 fc ff ff       	callq  401fda <notify_server>
  402373:	bf 01 00 00 00       	mov    $0x1,%edi
  402378:	e8 73 ee ff ff       	callq  4011f0 <exit@plt>

000000000040237d <sigalrmhandler>:
  40237d:	48 83 ec 08          	sub    $0x8,%rsp
  402381:	83 3d 80 51 00 00 00 	cmpl   $0x0,0x5180(%rip)        # 407508 <is_checker>
  402388:	74 16                	je     4023a0 <sigalrmhandler+0x23>
  40238a:	48 8d 3d 23 21 00 00 	lea    0x2123(%rip),%rdi        # 4044b4 <_IO_stdin_used+0x4b4>
  402391:	e8 ea ec ff ff       	callq  401080 <puts@plt>
  402396:	b8 00 00 00 00       	mov    $0x0,%eax
  40239b:	e8 b5 fb ff ff       	callq  401f55 <check_fail>
  4023a0:	be 05 00 00 00       	mov    $0x5,%esi
  4023a5:	48 8d 3d a4 22 00 00 	lea    0x22a4(%rip),%rdi        # 404650 <_IO_stdin_used+0x650>
  4023ac:	b8 00 00 00 00       	mov    $0x0,%eax
  4023b1:	e8 fa ec ff ff       	callq  4010b0 <printf@plt>
  4023b6:	be 00 00 00 00       	mov    $0x0,%esi
  4023bb:	bf 00 00 00 00       	mov    $0x0,%edi
  4023c0:	e8 15 fc ff ff       	callq  401fda <notify_server>
  4023c5:	bf 01 00 00 00       	mov    $0x1,%edi
  4023ca:	e8 21 ee ff ff       	callq  4011f0 <exit@plt>

00000000004023cf <launch>:
  4023cf:	55                   	push   %rbp
  4023d0:	48 89 e5             	mov    %rsp,%rbp
  4023d3:	48 89 fa             	mov    %rdi,%rdx
  4023d6:	48 8d 47 17          	lea    0x17(%rdi),%rax
  4023da:	48 83 e0 f0          	and    $0xfffffffffffffff0,%rax
  4023de:	48 29 c4             	sub    %rax,%rsp
  4023e1:	48 8d 7c 24 0f       	lea    0xf(%rsp),%rdi
  4023e6:	48 83 e7 f0          	and    $0xfffffffffffffff0,%rdi
  4023ea:	be f4 00 00 00       	mov    $0xf4,%esi
  4023ef:	e8 cc ec ff ff       	callq  4010c0 <memset@plt>
  4023f4:	48 8b 05 a5 50 00 00 	mov    0x50a5(%rip),%rax        # 4074a0 <stdin@@GLIBC_2.2.5>
  4023fb:	48 39 05 ee 50 00 00 	cmp    %rax,0x50ee(%rip)        # 4074f0 <infile>
  402402:	74 2b                	je     40242f <launch+0x60>
  402404:	c7 05 ee 50 00 00 00 	movl   $0x0,0x50ee(%rip)        # 4074fc <vlevel>
  40240b:	00 00 00 
  40240e:	b8 00 00 00 00       	mov    $0x0,%eax
  402413:	e8 87 f9 ff ff       	callq  401d9f <test>
  402418:	83 3d e9 50 00 00 00 	cmpl   $0x0,0x50e9(%rip)        # 407508 <is_checker>
  40241f:	75 21                	jne    402442 <launch+0x73>
  402421:	48 8d 3d ac 20 00 00 	lea    0x20ac(%rip),%rdi        # 4044d4 <_IO_stdin_used+0x4d4>
  402428:	e8 53 ec ff ff       	callq  401080 <puts@plt>
  40242d:	c9                   	leaveq 
  40242e:	c3                   	retq   
  40242f:	48 8d 3d 86 20 00 00 	lea    0x2086(%rip),%rdi        # 4044bc <_IO_stdin_used+0x4bc>
  402436:	b8 00 00 00 00       	mov    $0x0,%eax
  40243b:	e8 70 ec ff ff       	callq  4010b0 <printf@plt>
  402440:	eb c2                	jmp    402404 <launch+0x35>
  402442:	48 8d 3d 80 20 00 00 	lea    0x2080(%rip),%rdi        # 4044c9 <_IO_stdin_used+0x4c9>
  402449:	e8 32 ec ff ff       	callq  401080 <puts@plt>
  40244e:	b8 00 00 00 00       	mov    $0x0,%eax
  402453:	e8 fd fa ff ff       	callq  401f55 <check_fail>

0000000000402458 <stable_launch>:
  402458:	53                   	push   %rbx
  402459:	48 89 3d 88 50 00 00 	mov    %rdi,0x5088(%rip)        # 4074e8 <global_offset>
  402460:	41 b9 00 00 00 00    	mov    $0x0,%r9d
  402466:	41 b8 00 00 00 00    	mov    $0x0,%r8d
  40246c:	b9 32 01 00 00       	mov    $0x132,%ecx
  402471:	ba 07 00 00 00       	mov    $0x7,%edx
  402476:	be 00 00 10 00       	mov    $0x100000,%esi
  40247b:	bf 00 60 58 55       	mov    $0x55586000,%edi
  402480:	e8 1b ec ff ff       	callq  4010a0 <mmap@plt>
  402485:	48 89 c3             	mov    %rax,%rbx
  402488:	48 3d 00 60 58 55    	cmp    $0x55586000,%rax
  40248e:	75 43                	jne    4024d3 <stable_launch+0x7b>
  402490:	48 8d 90 f8 ff 0f 00 	lea    0xffff8(%rax),%rdx
  402497:	48 89 15 92 5c 00 00 	mov    %rdx,0x5c92(%rip)        # 408130 <stack_top>
  40249e:	48 89 e0             	mov    %rsp,%rax
  4024a1:	48 89 d4             	mov    %rdx,%rsp
  4024a4:	48 89 c2             	mov    %rax,%rdx
  4024a7:	48 89 15 32 50 00 00 	mov    %rdx,0x5032(%rip)        # 4074e0 <global_save_stack>
  4024ae:	48 8b 3d 33 50 00 00 	mov    0x5033(%rip),%rdi        # 4074e8 <global_offset>
  4024b5:	e8 15 ff ff ff       	callq  4023cf <launch>
  4024ba:	48 8b 05 1f 50 00 00 	mov    0x501f(%rip),%rax        # 4074e0 <global_save_stack>
  4024c1:	48 89 c4             	mov    %rax,%rsp
  4024c4:	be 00 00 10 00       	mov    $0x100000,%esi
  4024c9:	48 89 df             	mov    %rbx,%rdi
  4024cc:	e8 af ec ff ff       	callq  401180 <munmap@plt>
  4024d1:	5b                   	pop    %rbx
  4024d2:	c3                   	retq   
  4024d3:	be 00 00 10 00       	mov    $0x100000,%esi
  4024d8:	48 89 c7             	mov    %rax,%rdi
  4024db:	e8 a0 ec ff ff       	callq  401180 <munmap@plt>
  4024e0:	ba 00 60 58 55       	mov    $0x55586000,%edx
  4024e5:	48 8d 35 9c 21 00 00 	lea    0x219c(%rip),%rsi        # 404688 <_IO_stdin_used+0x688>
  4024ec:	48 8b 3d cd 4f 00 00 	mov    0x4fcd(%rip),%rdi        # 4074c0 <stderr@@GLIBC_2.2.5>
  4024f3:	b8 00 00 00 00       	mov    $0x0,%eax
  4024f8:	e8 23 ec ff ff       	callq  401120 <fprintf@plt>
  4024fd:	bf 01 00 00 00       	mov    $0x1,%edi
  402502:	e8 e9 ec ff ff       	callq  4011f0 <exit@plt>

0000000000402507 <rio_readinitb>:
  402507:	89 37                	mov    %esi,(%rdi)
  402509:	c7 47 04 00 00 00 00 	movl   $0x0,0x4(%rdi)
  402510:	48 8d 47 10          	lea    0x10(%rdi),%rax
  402514:	48 89 47 08          	mov    %rax,0x8(%rdi)
  402518:	c3                   	retq   

0000000000402519 <sigalrm_handler>:
  402519:	48 83 ec 08          	sub    $0x8,%rsp
  40251d:	ba 00 00 00 00       	mov    $0x0,%edx
  402522:	48 8d 35 97 21 00 00 	lea    0x2197(%rip),%rsi        # 4046c0 <trans_char+0x10>
  402529:	48 8b 3d 90 4f 00 00 	mov    0x4f90(%rip),%rdi        # 4074c0 <stderr@@GLIBC_2.2.5>
  402530:	b8 00 00 00 00       	mov    $0x0,%eax
  402535:	e8 e6 eb ff ff       	callq  401120 <fprintf@plt>
  40253a:	bf 01 00 00 00       	mov    $0x1,%edi
  40253f:	e8 ac ec ff ff       	callq  4011f0 <exit@plt>

0000000000402544 <urlencode>:
  402544:	41 54                	push   %r12
  402546:	55                   	push   %rbp
  402547:	53                   	push   %rbx
  402548:	48 83 ec 10          	sub    $0x10,%rsp
  40254c:	48 89 fb             	mov    %rdi,%rbx
  40254f:	48 89 f5             	mov    %rsi,%rbp
  402552:	48 c7 c1 ff ff ff ff 	mov    $0xffffffffffffffff,%rcx
  402559:	b8 00 00 00 00       	mov    $0x0,%eax
  40255e:	f2 ae                	repnz scas %es:(%rdi),%al
  402560:	48 89 ce             	mov    %rcx,%rsi
  402563:	48 f7 d6             	not    %rsi
  402566:	8d 46 ff             	lea    -0x1(%rsi),%eax
  402569:	eb 0e                	jmp    402579 <urlencode+0x35>
  40256b:	88 55 00             	mov    %dl,0x0(%rbp)
  40256e:	48 8d 6d 01          	lea    0x1(%rbp),%rbp
  402572:	48 83 c3 01          	add    $0x1,%rbx
  402576:	44 89 e0             	mov    %r12d,%eax
  402579:	44 8d 60 ff          	lea    -0x1(%rax),%r12d
  40257d:	85 c0                	test   %eax,%eax
  40257f:	0f 84 95 00 00 00    	je     40261a <urlencode+0xd6>
  402585:	0f b6 13             	movzbl (%rbx),%edx
  402588:	80 fa 2a             	cmp    $0x2a,%dl
  40258b:	0f 94 c1             	sete   %cl
  40258e:	80 fa 2d             	cmp    $0x2d,%dl
  402591:	0f 94 c0             	sete   %al
  402594:	08 c1                	or     %al,%cl
  402596:	75 d3                	jne    40256b <urlencode+0x27>
  402598:	80 fa 2e             	cmp    $0x2e,%dl
  40259b:	74 ce                	je     40256b <urlencode+0x27>
  40259d:	80 fa 5f             	cmp    $0x5f,%dl
  4025a0:	74 c9                	je     40256b <urlencode+0x27>
  4025a2:	8d 42 d0             	lea    -0x30(%rdx),%eax
  4025a5:	3c 09                	cmp    $0x9,%al
  4025a7:	76 c2                	jbe    40256b <urlencode+0x27>
  4025a9:	8d 42 bf             	lea    -0x41(%rdx),%eax
  4025ac:	3c 19                	cmp    $0x19,%al
  4025ae:	76 bb                	jbe    40256b <urlencode+0x27>
  4025b0:	8d 42 9f             	lea    -0x61(%rdx),%eax
  4025b3:	3c 19                	cmp    $0x19,%al
  4025b5:	76 b4                	jbe    40256b <urlencode+0x27>
  4025b7:	80 fa 20             	cmp    $0x20,%dl
  4025ba:	74 4c                	je     402608 <urlencode+0xc4>
  4025bc:	8d 42 e0             	lea    -0x20(%rdx),%eax
  4025bf:	3c 5f                	cmp    $0x5f,%al
  4025c1:	0f 96 c1             	setbe  %cl
  4025c4:	80 fa 09             	cmp    $0x9,%dl
  4025c7:	0f 94 c0             	sete   %al
  4025ca:	08 c1                	or     %al,%cl
  4025cc:	74 47                	je     402615 <urlencode+0xd1>
  4025ce:	0f b6 d2             	movzbl %dl,%edx
  4025d1:	48 8d 7c 24 08       	lea    0x8(%rsp),%rdi
  4025d6:	48 8d 35 78 21 00 00 	lea    0x2178(%rip),%rsi        # 404755 <trans_char+0xa5>
  4025dd:	b8 00 00 00 00       	mov    $0x0,%eax
  4025e2:	e8 f9 eb ff ff       	callq  4011e0 <sprintf@plt>
  4025e7:	0f b6 44 24 08       	movzbl 0x8(%rsp),%eax
  4025ec:	88 45 00             	mov    %al,0x0(%rbp)
  4025ef:	0f b6 44 24 09       	movzbl 0x9(%rsp),%eax
  4025f4:	88 45 01             	mov    %al,0x1(%rbp)
  4025f7:	0f b6 44 24 0a       	movzbl 0xa(%rsp),%eax
  4025fc:	88 45 02             	mov    %al,0x2(%rbp)
  4025ff:	48 8d 6d 03          	lea    0x3(%rbp),%rbp
  402603:	e9 6a ff ff ff       	jmpq   402572 <urlencode+0x2e>
  402608:	c6 45 00 2b          	movb   $0x2b,0x0(%rbp)
  40260c:	48 8d 6d 01          	lea    0x1(%rbp),%rbp
  402610:	e9 5d ff ff ff       	jmpq   402572 <urlencode+0x2e>
  402615:	b8 ff ff ff ff       	mov    $0xffffffff,%eax
  40261a:	48 83 c4 10          	add    $0x10,%rsp
  40261e:	5b                   	pop    %rbx
  40261f:	5d                   	pop    %rbp
  402620:	41 5c                	pop    %r12
  402622:	c3                   	retq   

0000000000402623 <rio_writen>:
  402623:	41 55                	push   %r13
  402625:	41 54                	push   %r12
  402627:	55                   	push   %rbp
  402628:	53                   	push   %rbx
  402629:	48 83 ec 08          	sub    $0x8,%rsp
  40262d:	41 89 fc             	mov    %edi,%r12d
  402630:	48 89 f5             	mov    %rsi,%rbp
  402633:	49 89 d5             	mov    %rdx,%r13
  402636:	48 89 d3             	mov    %rdx,%rbx
  402639:	eb 06                	jmp    402641 <rio_writen+0x1e>
  40263b:	48 29 c3             	sub    %rax,%rbx
  40263e:	48 01 c5             	add    %rax,%rbp
  402641:	48 85 db             	test   %rbx,%rbx
  402644:	74 24                	je     40266a <rio_writen+0x47>
  402646:	48 89 da             	mov    %rbx,%rdx
  402649:	48 89 ee             	mov    %rbp,%rsi
  40264c:	44 89 e7             	mov    %r12d,%edi
  40264f:	e8 3c ea ff ff       	callq  401090 <write@plt>
  402654:	48 85 c0             	test   %rax,%rax
  402657:	7f e2                	jg     40263b <rio_writen+0x18>
  402659:	e8 e2 e9 ff ff       	callq  401040 <__errno_location@plt>
  40265e:	83 38 04             	cmpl   $0x4,(%rax)
  402661:	75 15                	jne    402678 <rio_writen+0x55>
  402663:	b8 00 00 00 00       	mov    $0x0,%eax
  402668:	eb d1                	jmp    40263b <rio_writen+0x18>
  40266a:	4c 89 e8             	mov    %r13,%rax
  40266d:	48 83 c4 08          	add    $0x8,%rsp
  402671:	5b                   	pop    %rbx
  402672:	5d                   	pop    %rbp
  402673:	41 5c                	pop    %r12
  402675:	41 5d                	pop    %r13
  402677:	c3                   	retq   
  402678:	48 c7 c0 ff ff ff ff 	mov    $0xffffffffffffffff,%rax
  40267f:	eb ec                	jmp    40266d <rio_writen+0x4a>

0000000000402681 <rio_read>:
  402681:	41 55                	push   %r13
  402683:	41 54                	push   %r12
  402685:	55                   	push   %rbp
  402686:	53                   	push   %rbx
  402687:	48 83 ec 08          	sub    $0x8,%rsp
  40268b:	48 89 fb             	mov    %rdi,%rbx
  40268e:	49 89 f5             	mov    %rsi,%r13
  402691:	49 89 d4             	mov    %rdx,%r12
  402694:	eb 0a                	jmp    4026a0 <rio_read+0x1f>
  402696:	e8 a5 e9 ff ff       	callq  401040 <__errno_location@plt>
  40269b:	83 38 04             	cmpl   $0x4,(%rax)
  40269e:	75 5a                	jne    4026fa <rio_read+0x79>
  4026a0:	8b 6b 04             	mov    0x4(%rbx),%ebp
  4026a3:	85 ed                	test   %ebp,%ebp
  4026a5:	7f 22                	jg     4026c9 <rio_read+0x48>
  4026a7:	48 8d 6b 10          	lea    0x10(%rbx),%rbp
  4026ab:	ba 00 20 00 00       	mov    $0x2000,%edx
  4026b0:	48 89 ee             	mov    %rbp,%rsi
  4026b3:	8b 3b                	mov    (%rbx),%edi
  4026b5:	e8 36 ea ff ff       	callq  4010f0 <read@plt>
  4026ba:	89 43 04             	mov    %eax,0x4(%rbx)
  4026bd:	85 c0                	test   %eax,%eax
  4026bf:	78 d5                	js     402696 <rio_read+0x15>
  4026c1:	74 40                	je     402703 <rio_read+0x82>
  4026c3:	48 89 6b 08          	mov    %rbp,0x8(%rbx)
  4026c7:	eb d7                	jmp    4026a0 <rio_read+0x1f>
  4026c9:	89 e8                	mov    %ebp,%eax
  4026cb:	4c 39 e0             	cmp    %r12,%rax
  4026ce:	72 03                	jb     4026d3 <rio_read+0x52>
  4026d0:	44 89 e5             	mov    %r12d,%ebp
  4026d3:	4c 63 e5             	movslq %ebp,%r12
  4026d6:	48 8b 73 08          	mov    0x8(%rbx),%rsi
  4026da:	4c 89 e2             	mov    %r12,%rdx
  4026dd:	4c 89 ef             	mov    %r13,%rdi
  4026e0:	e8 5b ea ff ff       	callq  401140 <memcpy@plt>
  4026e5:	4c 01 63 08          	add    %r12,0x8(%rbx)
  4026e9:	29 6b 04             	sub    %ebp,0x4(%rbx)
  4026ec:	4c 89 e0             	mov    %r12,%rax
  4026ef:	48 83 c4 08          	add    $0x8,%rsp
  4026f3:	5b                   	pop    %rbx
  4026f4:	5d                   	pop    %rbp
  4026f5:	41 5c                	pop    %r12
  4026f7:	41 5d                	pop    %r13
  4026f9:	c3                   	retq   
  4026fa:	48 c7 c0 ff ff ff ff 	mov    $0xffffffffffffffff,%rax
  402701:	eb ec                	jmp    4026ef <rio_read+0x6e>
  402703:	b8 00 00 00 00       	mov    $0x0,%eax
  402708:	eb e5                	jmp    4026ef <rio_read+0x6e>

000000000040270a <rio_readlineb>:
  40270a:	41 55                	push   %r13
  40270c:	41 54                	push   %r12
  40270e:	55                   	push   %rbp
  40270f:	53                   	push   %rbx
  402710:	48 83 ec 18          	sub    $0x18,%rsp
  402714:	49 89 fd             	mov    %rdi,%r13
  402717:	48 89 f5             	mov    %rsi,%rbp
  40271a:	49 89 d4             	mov    %rdx,%r12
  40271d:	bb 01 00 00 00       	mov    $0x1,%ebx
  402722:	4c 39 e3             	cmp    %r12,%rbx
  402725:	73 44                	jae    40276b <rio_readlineb+0x61>
  402727:	48 8d 74 24 0f       	lea    0xf(%rsp),%rsi
  40272c:	ba 01 00 00 00       	mov    $0x1,%edx
  402731:	4c 89 ef             	mov    %r13,%rdi
  402734:	e8 48 ff ff ff       	callq  402681 <rio_read>
  402739:	83 f8 01             	cmp    $0x1,%eax
  40273c:	75 19                	jne    402757 <rio_readlineb+0x4d>
  40273e:	48 8d 55 01          	lea    0x1(%rbp),%rdx
  402742:	0f b6 44 24 0f       	movzbl 0xf(%rsp),%eax
  402747:	88 45 00             	mov    %al,0x0(%rbp)
  40274a:	3c 0a                	cmp    $0xa,%al
  40274c:	74 1a                	je     402768 <rio_readlineb+0x5e>
  40274e:	48 83 c3 01          	add    $0x1,%rbx
  402752:	48 89 d5             	mov    %rdx,%rbp
  402755:	eb cb                	jmp    402722 <rio_readlineb+0x18>
  402757:	85 c0                	test   %eax,%eax
  402759:	75 22                	jne    40277d <rio_readlineb+0x73>
  40275b:	48 83 fb 01          	cmp    $0x1,%rbx
  40275f:	75 0a                	jne    40276b <rio_readlineb+0x61>
  402761:	b8 00 00 00 00       	mov    $0x0,%eax
  402766:	eb 0a                	jmp    402772 <rio_readlineb+0x68>
  402768:	48 89 d5             	mov    %rdx,%rbp
  40276b:	c6 45 00 00          	movb   $0x0,0x0(%rbp)
  40276f:	48 89 d8             	mov    %rbx,%rax
  402772:	48 83 c4 18          	add    $0x18,%rsp
  402776:	5b                   	pop    %rbx
  402777:	5d                   	pop    %rbp
  402778:	41 5c                	pop    %r12
  40277a:	41 5d                	pop    %r13
  40277c:	c3                   	retq   
  40277d:	48 c7 c0 ff ff ff ff 	mov    $0xffffffffffffffff,%rax
  402784:	eb ec                	jmp    402772 <rio_readlineb+0x68>

0000000000402786 <submitr>:
  402786:	41 57                	push   %r15
  402788:	41 56                	push   %r14
  40278a:	41 55                	push   %r13
  40278c:	41 54                	push   %r12
  40278e:	55                   	push   %rbp
  40278f:	53                   	push   %rbx
  402790:	48 81 ec 58 a0 00 00 	sub    $0xa058,%rsp
  402797:	49 89 fd             	mov    %rdi,%r13
  40279a:	89 74 24 14          	mov    %esi,0x14(%rsp)
  40279e:	49 89 d7             	mov    %rdx,%r15
  4027a1:	48 89 4c 24 08       	mov    %rcx,0x8(%rsp)
  4027a6:	4c 89 44 24 18       	mov    %r8,0x18(%rsp)
  4027ab:	4d 89 ce             	mov    %r9,%r14
  4027ae:	48 8b ac 24 90 a0 00 	mov    0xa090(%rsp),%rbp
  4027b5:	00 
  4027b6:	c7 84 24 2c 20 00 00 	movl   $0x0,0x202c(%rsp)
  4027bd:	00 00 00 00 
  4027c1:	ba 00 00 00 00       	mov    $0x0,%edx
  4027c6:	be 01 00 00 00       	mov    $0x1,%esi
  4027cb:	bf 02 00 00 00       	mov    $0x2,%edi
  4027d0:	e8 4b ea ff ff       	callq  401220 <socket@plt>
  4027d5:	85 c0                	test   %eax,%eax
  4027d7:	0f 88 9a 02 00 00    	js     402a77 <submitr+0x2f1>
  4027dd:	89 c3                	mov    %eax,%ebx
  4027df:	4c 89 ef             	mov    %r13,%rdi
  4027e2:	e8 29 e9 ff ff       	callq  401110 <gethostbyname@plt>
  4027e7:	48 85 c0             	test   %rax,%rax
  4027ea:	0f 84 d3 02 00 00    	je     402ac3 <submitr+0x33d>
  4027f0:	4c 8d a4 24 40 a0 00 	lea    0xa040(%rsp),%r12
  4027f7:	00 
  4027f8:	48 c7 84 24 42 a0 00 	movq   $0x0,0xa042(%rsp)
  4027ff:	00 00 00 00 00 
  402804:	c7 84 24 4a a0 00 00 	movl   $0x0,0xa04a(%rsp)
  40280b:	00 00 00 00 
  40280f:	66 c7 84 24 4e a0 00 	movw   $0x0,0xa04e(%rsp)
  402816:	00 00 00 
  402819:	66 c7 84 24 40 a0 00 	movw   $0x2,0xa040(%rsp)
  402820:	00 02 00 
  402823:	48 8b 48 18          	mov    0x18(%rax),%rcx
  402827:	48 63 50 14          	movslq 0x14(%rax),%rdx
  40282b:	48 8d bc 24 44 a0 00 	lea    0xa044(%rsp),%rdi
  402832:	00 
  402833:	48 8b 31             	mov    (%rcx),%rsi
  402836:	e8 55 e9 ff ff       	callq  401190 <memmove@plt>
  40283b:	0f b7 44 24 14       	movzwl 0x14(%rsp),%eax
  402840:	66 c1 c0 08          	rol    $0x8,%ax
  402844:	66 89 84 24 42 a0 00 	mov    %ax,0xa042(%rsp)
  40284b:	00 
  40284c:	ba 10 00 00 00       	mov    $0x10,%edx
  402851:	4c 89 e6             	mov    %r12,%rsi
  402854:	89 df                	mov    %ebx,%edi
  402856:	e8 a5 e9 ff ff       	callq  401200 <connect@plt>
  40285b:	85 c0                	test   %eax,%eax
  40285d:	0f 88 c8 02 00 00    	js     402b2b <submitr+0x3a5>
  402863:	48 c7 c6 ff ff ff ff 	mov    $0xffffffffffffffff,%rsi
  40286a:	b8 00 00 00 00       	mov    $0x0,%eax
  40286f:	48 89 f1             	mov    %rsi,%rcx
  402872:	4c 89 f7             	mov    %r14,%rdi
  402875:	f2 ae                	repnz scas %es:(%rdi),%al
  402877:	48 89 ca             	mov    %rcx,%rdx
  40287a:	48 f7 d2             	not    %rdx
  40287d:	48 89 f1             	mov    %rsi,%rcx
  402880:	4c 89 ff             	mov    %r15,%rdi
  402883:	f2 ae                	repnz scas %es:(%rdi),%al
  402885:	48 f7 d1             	not    %rcx
  402888:	49 89 c8             	mov    %rcx,%r8
  40288b:	48 89 f1             	mov    %rsi,%rcx
  40288e:	48 8b 7c 24 08       	mov    0x8(%rsp),%rdi
  402893:	f2 ae                	repnz scas %es:(%rdi),%al
  402895:	48 f7 d1             	not    %rcx
  402898:	4d 8d 44 08 fe       	lea    -0x2(%r8,%rcx,1),%r8
  40289d:	48 89 f1             	mov    %rsi,%rcx
  4028a0:	48 8b 7c 24 18       	mov    0x18(%rsp),%rdi
  4028a5:	f2 ae                	repnz scas %es:(%rdi),%al
  4028a7:	48 89 c8             	mov    %rcx,%rax
  4028aa:	48 f7 d0             	not    %rax
  4028ad:	49 8d 4c 00 ff       	lea    -0x1(%r8,%rax,1),%rcx
  4028b2:	48 8d 44 52 fd       	lea    -0x3(%rdx,%rdx,2),%rax
  4028b7:	48 8d 84 01 80 00 00 	lea    0x80(%rcx,%rax,1),%rax
  4028be:	00 
  4028bf:	48 3d 00 20 00 00    	cmp    $0x2000,%rax
  4028c5:	0f 87 ba 02 00 00    	ja     402b85 <submitr+0x3ff>
  4028cb:	48 8d b4 24 30 40 00 	lea    0x4030(%rsp),%rsi
  4028d2:	00 
  4028d3:	b9 00 04 00 00       	mov    $0x400,%ecx
  4028d8:	b8 00 00 00 00       	mov    $0x0,%eax
  4028dd:	48 89 f7             	mov    %rsi,%rdi
  4028e0:	f3 48 ab             	rep stos %rax,%es:(%rdi)
  4028e3:	4c 89 f7             	mov    %r14,%rdi
  4028e6:	e8 59 fc ff ff       	callq  402544 <urlencode>
  4028eb:	85 c0                	test   %eax,%eax
  4028ed:	0f 88 05 03 00 00    	js     402bf8 <submitr+0x472>
  4028f3:	4c 8d a4 24 30 60 00 	lea    0x6030(%rsp),%r12
  4028fa:	00 
  4028fb:	4d 89 e9             	mov    %r13,%r9
  4028fe:	4c 8d 84 24 30 40 00 	lea    0x4030(%rsp),%r8
  402905:	00 
  402906:	4c 89 f9             	mov    %r15,%rcx
  402909:	48 8b 54 24 08       	mov    0x8(%rsp),%rdx
  40290e:	48 8d 35 d3 1d 00 00 	lea    0x1dd3(%rip),%rsi        # 4046e8 <trans_char+0x38>
  402915:	4c 89 e7             	mov    %r12,%rdi
  402918:	b8 00 00 00 00       	mov    $0x0,%eax
  40291d:	e8 be e8 ff ff       	callq  4011e0 <sprintf@plt>
  402922:	48 c7 c1 ff ff ff ff 	mov    $0xffffffffffffffff,%rcx
  402929:	b8 00 00 00 00       	mov    $0x0,%eax
  40292e:	4c 89 e7             	mov    %r12,%rdi
  402931:	f2 ae                	repnz scas %es:(%rdi),%al
  402933:	48 89 ca             	mov    %rcx,%rdx
  402936:	48 f7 d2             	not    %rdx
  402939:	48 8d 52 ff          	lea    -0x1(%rdx),%rdx
  40293d:	4c 89 e6             	mov    %r12,%rsi
  402940:	89 df                	mov    %ebx,%edi
  402942:	e8 dc fc ff ff       	callq  402623 <rio_writen>
  402947:	48 85 c0             	test   %rax,%rax
  40294a:	0f 88 33 03 00 00    	js     402c83 <submitr+0x4fd>
  402950:	4c 8d a4 24 30 80 00 	lea    0x8030(%rsp),%r12
  402957:	00 
  402958:	89 de                	mov    %ebx,%esi
  40295a:	4c 89 e7             	mov    %r12,%rdi
  40295d:	e8 a5 fb ff ff       	callq  402507 <rio_readinitb>
  402962:	48 8d b4 24 30 60 00 	lea    0x6030(%rsp),%rsi
  402969:	00 
  40296a:	ba 00 20 00 00       	mov    $0x2000,%edx
  40296f:	4c 89 e7             	mov    %r12,%rdi
  402972:	e8 93 fd ff ff       	callq  40270a <rio_readlineb>
  402977:	48 85 c0             	test   %rax,%rax
  40297a:	0f 8e 72 03 00 00    	jle    402cf2 <submitr+0x56c>
  402980:	48 8d 8c 24 2c 20 00 	lea    0x202c(%rsp),%rcx
  402987:	00 
  402988:	48 8d 94 24 30 20 00 	lea    0x2030(%rsp),%rdx
  40298f:	00 
  402990:	48 8d bc 24 30 60 00 	lea    0x6030(%rsp),%rdi
  402997:	00 
  402998:	4c 8d 44 24 20       	lea    0x20(%rsp),%r8
  40299d:	48 8d 35 b8 1d 00 00 	lea    0x1db8(%rip),%rsi        # 40475c <trans_char+0xac>
  4029a4:	b8 00 00 00 00       	mov    $0x0,%eax
  4029a9:	e8 c2 e7 ff ff       	callq  401170 <__isoc99_sscanf@plt>
  4029ae:	48 8d b4 24 30 60 00 	lea    0x6030(%rsp),%rsi
  4029b5:	00 
  4029b6:	b9 03 00 00 00       	mov    $0x3,%ecx
  4029bb:	48 8d 3d b1 1d 00 00 	lea    0x1db1(%rip),%rdi        # 404773 <trans_char+0xc3>
  4029c2:	f3 a6                	repz cmpsb %es:(%rdi),%ds:(%rsi)
  4029c4:	0f 97 c0             	seta   %al
  4029c7:	1c 00                	sbb    $0x0,%al
  4029c9:	84 c0                	test   %al,%al
  4029cb:	0f 84 9f 03 00 00    	je     402d70 <submitr+0x5ea>
  4029d1:	48 8d b4 24 30 60 00 	lea    0x6030(%rsp),%rsi
  4029d8:	00 
  4029d9:	48 8d bc 24 30 80 00 	lea    0x8030(%rsp),%rdi
  4029e0:	00 
  4029e1:	ba 00 20 00 00       	mov    $0x2000,%edx
  4029e6:	e8 1f fd ff ff       	callq  40270a <rio_readlineb>
  4029eb:	48 85 c0             	test   %rax,%rax
  4029ee:	7f be                	jg     4029ae <submitr+0x228>
  4029f0:	48 b8 45 72 72 6f 72 	movabs $0x43203a726f727245,%rax
  4029f7:	3a 20 43 
  4029fa:	48 ba 6c 69 65 6e 74 	movabs $0x6e7520746e65696c,%rdx
  402a01:	20 75 6e 
  402a04:	48 89 45 00          	mov    %rax,0x0(%rbp)
  402a08:	48 89 55 08          	mov    %rdx,0x8(%rbp)
  402a0c:	48 b8 61 62 6c 65 20 	movabs $0x206f7420656c6261,%rax
  402a13:	74 6f 20 
  402a16:	48 ba 72 65 61 64 20 	movabs $0x6165682064616572,%rdx
  402a1d:	68 65 61 
  402a20:	48 89 45 10          	mov    %rax,0x10(%rbp)
  402a24:	48 89 55 18          	mov    %rdx,0x18(%rbp)
  402a28:	48 b8 64 65 72 73 20 	movabs $0x6f72662073726564,%rax
  402a2f:	66 72 6f 
  402a32:	48 ba 6d 20 74 68 65 	movabs $0x657220656874206d,%rdx
  402a39:	20 72 65 
  402a3c:	48 89 45 20          	mov    %rax,0x20(%rbp)
  402a40:	48 89 55 28          	mov    %rdx,0x28(%rbp)
  402a44:	48 b8 73 75 6c 74 20 	movabs $0x72657320746c7573,%rax
  402a4b:	73 65 72 
  402a4e:	48 89 45 30          	mov    %rax,0x30(%rbp)
  402a52:	c7 45 38 76 65 72 00 	movl   $0x726576,0x38(%rbp)
  402a59:	89 df                	mov    %ebx,%edi
  402a5b:	e8 80 e6 ff ff       	callq  4010e0 <close@plt>
  402a60:	b8 ff ff ff ff       	mov    $0xffffffff,%eax
  402a65:	48 81 c4 58 a0 00 00 	add    $0xa058,%rsp
  402a6c:	5b                   	pop    %rbx
  402a6d:	5d                   	pop    %rbp
  402a6e:	41 5c                	pop    %r12
  402a70:	41 5d                	pop    %r13
  402a72:	41 5e                	pop    %r14
  402a74:	41 5f                	pop    %r15
  402a76:	c3                   	retq   
  402a77:	48 b8 45 72 72 6f 72 	movabs $0x43203a726f727245,%rax
  402a7e:	3a 20 43 
  402a81:	48 ba 6c 69 65 6e 74 	movabs $0x6e7520746e65696c,%rdx
  402a88:	20 75 6e 
  402a8b:	48 89 45 00          	mov    %rax,0x0(%rbp)
  402a8f:	48 89 55 08          	mov    %rdx,0x8(%rbp)
  402a93:	48 b8 61 62 6c 65 20 	movabs $0x206f7420656c6261,%rax
  402a9a:	74 6f 20 
  402a9d:	48 ba 63 72 65 61 74 	movabs $0x7320657461657263,%rdx
  402aa4:	65 20 73 
  402aa7:	48 89 45 10          	mov    %rax,0x10(%rbp)
  402aab:	48 89 55 18          	mov    %rdx,0x18(%rbp)
  402aaf:	c7 45 20 6f 63 6b 65 	movl   $0x656b636f,0x20(%rbp)
  402ab6:	66 c7 45 24 74 00    	movw   $0x74,0x24(%rbp)
  402abc:	b8 ff ff ff ff       	mov    $0xffffffff,%eax
  402ac1:	eb a2                	jmp    402a65 <submitr+0x2df>
  402ac3:	48 b8 45 72 72 6f 72 	movabs $0x44203a726f727245,%rax
  402aca:	3a 20 44 
  402acd:	48 ba 4e 53 20 69 73 	movabs $0x6e7520736920534e,%rdx
  402ad4:	20 75 6e 
  402ad7:	48 89 45 00          	mov    %rax,0x0(%rbp)
  402adb:	48 89 55 08          	mov    %rdx,0x8(%rbp)
  402adf:	48 b8 61 62 6c 65 20 	movabs $0x206f7420656c6261,%rax
  402ae6:	74 6f 20 
  402ae9:	48 ba 72 65 73 6f 6c 	movabs $0x2065766c6f736572,%rdx
  402af0:	76 65 20 
  402af3:	48 89 45 10          	mov    %rax,0x10(%rbp)
  402af7:	48 89 55 18          	mov    %rdx,0x18(%rbp)
  402afb:	48 b8 73 65 72 76 65 	movabs $0x6120726576726573,%rax
  402b02:	72 20 61 
  402b05:	48 89 45 20          	mov    %rax,0x20(%rbp)
  402b09:	c7 45 28 64 64 72 65 	movl   $0x65726464,0x28(%rbp)
  402b10:	66 c7 45 2c 73 73    	movw   $0x7373,0x2c(%rbp)
  402b16:	c6 45 2e 00          	movb   $0x0,0x2e(%rbp)
  402b1a:	89 df                	mov    %ebx,%edi
  402b1c:	e8 bf e5 ff ff       	callq  4010e0 <close@plt>
  402b21:	b8 ff ff ff ff       	mov    $0xffffffff,%eax
  402b26:	e9 3a ff ff ff       	jmpq   402a65 <submitr+0x2df>
  402b2b:	48 b8 45 72 72 6f 72 	movabs $0x55203a726f727245,%rax
  402b32:	3a 20 55 
  402b35:	48 ba 6e 61 62 6c 65 	movabs $0x6f7420656c62616e,%rdx
  402b3c:	20 74 6f 
  402b3f:	48 89 45 00          	mov    %rax,0x0(%rbp)
  402b43:	48 89 55 08          	mov    %rdx,0x8(%rbp)
  402b47:	48 b8 20 63 6f 6e 6e 	movabs $0x7463656e6e6f6320,%rax
  402b4e:	65 63 74 
  402b51:	48 ba 20 74 6f 20 74 	movabs $0x20656874206f7420,%rdx
  402b58:	68 65 20 
  402b5b:	48 89 45 10          	mov    %rax,0x10(%rbp)
  402b5f:	48 89 55 18          	mov    %rdx,0x18(%rbp)
  402b63:	c7 45 20 73 65 72 76 	movl   $0x76726573,0x20(%rbp)
  402b6a:	66 c7 45 24 65 72    	movw   $0x7265,0x24(%rbp)
  402b70:	c6 45 26 00          	movb   $0x0,0x26(%rbp)
  402b74:	89 df                	mov    %ebx,%edi
  402b76:	e8 65 e5 ff ff       	callq  4010e0 <close@plt>
  402b7b:	b8 ff ff ff ff       	mov    $0xffffffff,%eax
  402b80:	e9 e0 fe ff ff       	jmpq   402a65 <submitr+0x2df>
  402b85:	48 b8 45 72 72 6f 72 	movabs $0x52203a726f727245,%rax
  402b8c:	3a 20 52 
  402b8f:	48 ba 65 73 75 6c 74 	movabs $0x747320746c757365,%rdx
  402b96:	20 73 74 
  402b99:	48 89 45 00          	mov    %rax,0x0(%rbp)
  402b9d:	48 89 55 08          	mov    %rdx,0x8(%rbp)
  402ba1:	48 b8 72 69 6e 67 20 	movabs $0x6f6f7420676e6972,%rax
  402ba8:	74 6f 6f 
  402bab:	48 ba 20 6c 61 72 67 	movabs $0x202e656772616c20,%rdx
  402bb2:	65 2e 20 
  402bb5:	48 89 45 10          	mov    %rax,0x10(%rbp)
  402bb9:	48 89 55 18          	mov    %rdx,0x18(%rbp)
  402bbd:	48 b8 49 6e 63 72 65 	movabs $0x6573616572636e49,%rax
  402bc4:	61 73 65 
  402bc7:	48 ba 20 53 55 42 4d 	movabs $0x5254494d42555320,%rdx
  402bce:	49 54 52 
  402bd1:	48 89 45 20          	mov    %rax,0x20(%rbp)
  402bd5:	48 89 55 28          	mov    %rdx,0x28(%rbp)
  402bd9:	48 b8 5f 4d 41 58 42 	movabs $0x46554258414d5f,%rax
  402be0:	55 46 00 
  402be3:	48 89 45 30          	mov    %rax,0x30(%rbp)
  402be7:	89 df                	mov    %ebx,%edi
  402be9:	e8 f2 e4 ff ff       	callq  4010e0 <close@plt>
  402bee:	b8 ff ff ff ff       	mov    $0xffffffff,%eax
  402bf3:	e9 6d fe ff ff       	jmpq   402a65 <submitr+0x2df>
  402bf8:	48 b8 45 72 72 6f 72 	movabs $0x52203a726f727245,%rax
  402bff:	3a 20 52 
  402c02:	48 ba 65 73 75 6c 74 	movabs $0x747320746c757365,%rdx
  402c09:	20 73 74 
  402c0c:	48 89 45 00          	mov    %rax,0x0(%rbp)
  402c10:	48 89 55 08          	mov    %rdx,0x8(%rbp)
  402c14:	48 b8 72 69 6e 67 20 	movabs $0x6e6f6320676e6972,%rax
  402c1b:	63 6f 6e 
  402c1e:	48 ba 74 61 69 6e 73 	movabs $0x6e6120736e696174,%rdx
  402c25:	20 61 6e 
  402c28:	48 89 45 10          	mov    %rax,0x10(%rbp)
  402c2c:	48 89 55 18          	mov    %rdx,0x18(%rbp)
  402c30:	48 b8 20 69 6c 6c 65 	movabs $0x6c6167656c6c6920,%rax
  402c37:	67 61 6c 
  402c3a:	48 ba 20 6f 72 20 75 	movabs $0x72706e7520726f20,%rdx
  402c41:	6e 70 72 
  402c44:	48 89 45 20          	mov    %rax,0x20(%rbp)
  402c48:	48 89 55 28          	mov    %rdx,0x28(%rbp)
  402c4c:	48 b8 69 6e 74 61 62 	movabs $0x20656c6261746e69,%rax
  402c53:	6c 65 20 
  402c56:	48 ba 63 68 61 72 61 	movabs $0x6574636172616863,%rdx
  402c5d:	63 74 65 
  402c60:	48 89 45 30          	mov    %rax,0x30(%rbp)
  402c64:	48 89 55 38          	mov    %rdx,0x38(%rbp)
  402c68:	66 c7 45 40 72 2e    	movw   $0x2e72,0x40(%rbp)
  402c6e:	c6 45 42 00          	movb   $0x0,0x42(%rbp)
  402c72:	89 df                	mov    %ebx,%edi
  402c74:	e8 67 e4 ff ff       	callq  4010e0 <close@plt>
  402c79:	b8 ff ff ff ff       	mov    $0xffffffff,%eax
  402c7e:	e9 e2 fd ff ff       	jmpq   402a65 <submitr+0x2df>
  402c83:	48 b8 45 72 72 6f 72 	movabs $0x43203a726f727245,%rax
  402c8a:	3a 20 43 
  402c8d:	48 ba 6c 69 65 6e 74 	movabs $0x6e7520746e65696c,%rdx
  402c94:	20 75 6e 
  402c97:	48 89 45 00          	mov    %rax,0x0(%rbp)
  402c9b:	48 89 55 08          	mov    %rdx,0x8(%rbp)
  402c9f:	48 b8 61 62 6c 65 20 	movabs $0x206f7420656c6261,%rax
  402ca6:	74 6f 20 
  402ca9:	48 ba 77 72 69 74 65 	movabs $0x6f74206574697277,%rdx
  402cb0:	20 74 6f 
  402cb3:	48 89 45 10          	mov    %rax,0x10(%rbp)
  402cb7:	48 89 55 18          	mov    %rdx,0x18(%rbp)
  402cbb:	48 b8 20 74 68 65 20 	movabs $0x7365722065687420,%rax
  402cc2:	72 65 73 
  402cc5:	48 ba 75 6c 74 20 73 	movabs $0x7672657320746c75,%rdx
  402ccc:	65 72 76 
  402ccf:	48 89 45 20          	mov    %rax,0x20(%rbp)
  402cd3:	48 89 55 28          	mov    %rdx,0x28(%rbp)
  402cd7:	66 c7 45 30 65 72    	movw   $0x7265,0x30(%rbp)
  402cdd:	c6 45 32 00          	movb   $0x0,0x32(%rbp)
  402ce1:	89 df                	mov    %ebx,%edi
  402ce3:	e8 f8 e3 ff ff       	callq  4010e0 <close@plt>
  402ce8:	b8 ff ff ff ff       	mov    $0xffffffff,%eax
  402ced:	e9 73 fd ff ff       	jmpq   402a65 <submitr+0x2df>
  402cf2:	48 b8 45 72 72 6f 72 	movabs $0x43203a726f727245,%rax
  402cf9:	3a 20 43 
  402cfc:	48 ba 6c 69 65 6e 74 	movabs $0x6e7520746e65696c,%rdx
  402d03:	20 75 6e 
  402d06:	48 89 45 00          	mov    %rax,0x0(%rbp)
  402d0a:	48 89 55 08          	mov    %rdx,0x8(%rbp)
  402d0e:	48 b8 61 62 6c 65 20 	movabs $0x206f7420656c6261,%rax
  402d15:	74 6f 20 
  402d18:	48 ba 72 65 61 64 20 	movabs $0x7269662064616572,%rdx
  402d1f:	66 69 72 
  402d22:	48 89 45 10          	mov    %rax,0x10(%rbp)
  402d26:	48 89 55 18          	mov    %rdx,0x18(%rbp)
  402d2a:	48 b8 73 74 20 68 65 	movabs $0x6564616568207473,%rax
  402d31:	61 64 65 
  402d34:	48 ba 72 20 66 72 6f 	movabs $0x72206d6f72662072,%rdx
  402d3b:	6d 20 72 
  402d3e:	48 89 45 20          	mov    %rax,0x20(%rbp)
  402d42:	48 89 55 28          	mov    %rdx,0x28(%rbp)
  402d46:	48 b8 65 73 75 6c 74 	movabs $0x657320746c757365,%rax
  402d4d:	20 73 65 
  402d50:	48 89 45 30          	mov    %rax,0x30(%rbp)
  402d54:	c7 45 38 72 76 65 72 	movl   $0x72657672,0x38(%rbp)
  402d5b:	c6 45 3c 00          	movb   $0x0,0x3c(%rbp)
  402d5f:	89 df                	mov    %ebx,%edi
  402d61:	e8 7a e3 ff ff       	callq  4010e0 <close@plt>
  402d66:	b8 ff ff ff ff       	mov    $0xffffffff,%eax
  402d6b:	e9 f5 fc ff ff       	jmpq   402a65 <submitr+0x2df>
  402d70:	48 8d b4 24 30 60 00 	lea    0x6030(%rsp),%rsi
  402d77:	00 
  402d78:	48 8d bc 24 30 80 00 	lea    0x8030(%rsp),%rdi
  402d7f:	00 
  402d80:	ba 00 20 00 00       	mov    $0x2000,%edx
  402d85:	e8 80 f9 ff ff       	callq  40270a <rio_readlineb>
  402d8a:	48 85 c0             	test   %rax,%rax
  402d8d:	0f 8e 97 00 00 00    	jle    402e2a <submitr+0x6a4>
  402d93:	8b 94 24 2c 20 00 00 	mov    0x202c(%rsp),%edx
  402d9a:	81 fa c8 00 00 00    	cmp    $0xc8,%edx
  402da0:	0f 85 08 01 00 00    	jne    402eae <submitr+0x728>
  402da6:	48 8d b4 24 30 60 00 	lea    0x6030(%rsp),%rsi
  402dad:	00 
  402dae:	48 89 ef             	mov    %rbp,%rdi
  402db1:	e8 ba e2 ff ff       	callq  401070 <strcpy@plt>
  402db6:	89 df                	mov    %ebx,%edi
  402db8:	e8 23 e3 ff ff       	callq  4010e0 <close@plt>
  402dbd:	b9 04 00 00 00       	mov    $0x4,%ecx
  402dc2:	48 8d 3d a4 19 00 00 	lea    0x19a4(%rip),%rdi        # 40476d <trans_char+0xbd>
  402dc9:	48 89 ee             	mov    %rbp,%rsi
  402dcc:	f3 a6                	repz cmpsb %es:(%rdi),%ds:(%rsi)
  402dce:	0f 97 c0             	seta   %al
  402dd1:	1c 00                	sbb    $0x0,%al
  402dd3:	0f be c0             	movsbl %al,%eax
  402dd6:	85 c0                	test   %eax,%eax
  402dd8:	0f 84 87 fc ff ff    	je     402a65 <submitr+0x2df>
  402dde:	b9 05 00 00 00       	mov    $0x5,%ecx
  402de3:	48 8d 3d 87 19 00 00 	lea    0x1987(%rip),%rdi        # 404771 <trans_char+0xc1>
  402dea:	48 89 ee             	mov    %rbp,%rsi
  402ded:	f3 a6                	repz cmpsb %es:(%rdi),%ds:(%rsi)
  402def:	0f 97 c0             	seta   %al
  402df2:	1c 00                	sbb    $0x0,%al
  402df4:	0f be c0             	movsbl %al,%eax
  402df7:	85 c0                	test   %eax,%eax
  402df9:	0f 84 66 fc ff ff    	je     402a65 <submitr+0x2df>
  402dff:	b9 03 00 00 00       	mov    $0x3,%ecx
  402e04:	48 8d 3d 6b 19 00 00 	lea    0x196b(%rip),%rdi        # 404776 <trans_char+0xc6>
  402e0b:	48 89 ee             	mov    %rbp,%rsi
  402e0e:	f3 a6                	repz cmpsb %es:(%rdi),%ds:(%rsi)
  402e10:	0f 97 c0             	seta   %al
  402e13:	1c 00                	sbb    $0x0,%al
  402e15:	0f be c0             	movsbl %al,%eax
  402e18:	85 c0                	test   %eax,%eax
  402e1a:	0f 84 45 fc ff ff    	je     402a65 <submitr+0x2df>
  402e20:	b8 ff ff ff ff       	mov    $0xffffffff,%eax
  402e25:	e9 3b fc ff ff       	jmpq   402a65 <submitr+0x2df>
  402e2a:	48 b8 45 72 72 6f 72 	movabs $0x43203a726f727245,%rax
  402e31:	3a 20 43 
  402e34:	48 ba 6c 69 65 6e 74 	movabs $0x6e7520746e65696c,%rdx
  402e3b:	20 75 6e 
  402e3e:	48 89 45 00          	mov    %rax,0x0(%rbp)
  402e42:	48 89 55 08          	mov    %rdx,0x8(%rbp)
  402e46:	48 b8 61 62 6c 65 20 	movabs $0x206f7420656c6261,%rax
  402e4d:	74 6f 20 
  402e50:	48 ba 72 65 61 64 20 	movabs $0x6174732064616572,%rdx
  402e57:	73 74 61 
  402e5a:	48 89 45 10          	mov    %rax,0x10(%rbp)
  402e5e:	48 89 55 18          	mov    %rdx,0x18(%rbp)
  402e62:	48 b8 74 75 73 20 6d 	movabs $0x7373656d20737574,%rax
  402e69:	65 73 73 
  402e6c:	48 ba 61 67 65 20 66 	movabs $0x6d6f726620656761,%rdx
  402e73:	72 6f 6d 
  402e76:	48 89 45 20          	mov    %rax,0x20(%rbp)
  402e7a:	48 89 55 28          	mov    %rdx,0x28(%rbp)
  402e7e:	48 b8 20 72 65 73 75 	movabs $0x20746c7573657220,%rax
  402e85:	6c 74 20 
  402e88:	48 89 45 30          	mov    %rax,0x30(%rbp)
  402e8c:	c7 45 38 73 65 72 76 	movl   $0x76726573,0x38(%rbp)
  402e93:	66 c7 45 3c 65 72    	movw   $0x7265,0x3c(%rbp)
  402e99:	c6 45 3e 00          	movb   $0x0,0x3e(%rbp)
  402e9d:	89 df                	mov    %ebx,%edi
  402e9f:	e8 3c e2 ff ff       	callq  4010e0 <close@plt>
  402ea4:	b8 ff ff ff ff       	mov    $0xffffffff,%eax
  402ea9:	e9 b7 fb ff ff       	jmpq   402a65 <submitr+0x2df>
  402eae:	48 8d 4c 24 20       	lea    0x20(%rsp),%rcx
  402eb3:	48 8d 35 6e 18 00 00 	lea    0x186e(%rip),%rsi        # 404728 <trans_char+0x78>
  402eba:	48 89 ef             	mov    %rbp,%rdi
  402ebd:	b8 00 00 00 00       	mov    $0x0,%eax
  402ec2:	e8 19 e3 ff ff       	callq  4011e0 <sprintf@plt>
  402ec7:	89 df                	mov    %ebx,%edi
  402ec9:	e8 12 e2 ff ff       	callq  4010e0 <close@plt>
  402ece:	b8 ff ff ff ff       	mov    $0xffffffff,%eax
  402ed3:	e9 8d fb ff ff       	jmpq   402a65 <submitr+0x2df>

0000000000402ed8 <init_timeout>:
  402ed8:	85 ff                	test   %edi,%edi
  402eda:	74 26                	je     402f02 <init_timeout+0x2a>
  402edc:	53                   	push   %rbx
  402edd:	89 fb                	mov    %edi,%ebx
  402edf:	78 1a                	js     402efb <init_timeout+0x23>
  402ee1:	48 8d 35 31 f6 ff ff 	lea    -0x9cf(%rip),%rsi        # 402519 <sigalrm_handler>
  402ee8:	bf 0e 00 00 00       	mov    $0xe,%edi
  402eed:	e8 0e e2 ff ff       	callq  401100 <signal@plt>
  402ef2:	89 df                	mov    %ebx,%edi
  402ef4:	e8 d7 e1 ff ff       	callq  4010d0 <alarm@plt>
  402ef9:	5b                   	pop    %rbx
  402efa:	c3                   	retq   
  402efb:	bb 00 00 00 00       	mov    $0x0,%ebx
  402f00:	eb df                	jmp    402ee1 <init_timeout+0x9>
  402f02:	c3                   	retq   

0000000000402f03 <init_driver>:
  402f03:	41 54                	push   %r12
  402f05:	55                   	push   %rbp
  402f06:	53                   	push   %rbx
  402f07:	48 83 ec 10          	sub    $0x10,%rsp
  402f0b:	49 89 fc             	mov    %rdi,%r12
  402f0e:	be 01 00 00 00       	mov    $0x1,%esi
  402f13:	bf 0d 00 00 00       	mov    $0xd,%edi
  402f18:	e8 e3 e1 ff ff       	callq  401100 <signal@plt>
  402f1d:	be 01 00 00 00       	mov    $0x1,%esi
  402f22:	bf 1d 00 00 00       	mov    $0x1d,%edi
  402f27:	e8 d4 e1 ff ff       	callq  401100 <signal@plt>
  402f2c:	be 01 00 00 00       	mov    $0x1,%esi
  402f31:	bf 1d 00 00 00       	mov    $0x1d,%edi
  402f36:	e8 c5 e1 ff ff       	callq  401100 <signal@plt>
  402f3b:	ba 00 00 00 00       	mov    $0x0,%edx
  402f40:	be 01 00 00 00       	mov    $0x1,%esi
  402f45:	bf 02 00 00 00       	mov    $0x2,%edi
  402f4a:	e8 d1 e2 ff ff       	callq  401220 <socket@plt>
  402f4f:	85 c0                	test   %eax,%eax
  402f51:	0f 88 8a 00 00 00    	js     402fe1 <init_driver+0xde>
  402f57:	89 c3                	mov    %eax,%ebx
  402f59:	48 8d 3d 19 18 00 00 	lea    0x1819(%rip),%rdi        # 404779 <trans_char+0xc9>
  402f60:	e8 ab e1 ff ff       	callq  401110 <gethostbyname@plt>
  402f65:	48 85 c0             	test   %rax,%rax
  402f68:	0f 84 c6 00 00 00    	je     403034 <init_driver+0x131>
  402f6e:	48 89 e5             	mov    %rsp,%rbp
  402f71:	48 c7 44 24 02 00 00 	movq   $0x0,0x2(%rsp)
  402f78:	00 00 
  402f7a:	c7 45 0a 00 00 00 00 	movl   $0x0,0xa(%rbp)
  402f81:	66 c7 45 0e 00 00    	movw   $0x0,0xe(%rbp)
  402f87:	66 c7 04 24 02 00    	movw   $0x2,(%rsp)
  402f8d:	48 8b 48 18          	mov    0x18(%rax),%rcx
  402f91:	48 63 50 14          	movslq 0x14(%rax),%rdx
  402f95:	48 8d 7d 04          	lea    0x4(%rbp),%rdi
  402f99:	48 8b 31             	mov    (%rcx),%rsi
  402f9c:	e8 ef e1 ff ff       	callq  401190 <memmove@plt>
  402fa1:	66 c7 44 24 02 3c a4 	movw   $0xa43c,0x2(%rsp)
  402fa8:	ba 10 00 00 00       	mov    $0x10,%edx
  402fad:	48 89 ee             	mov    %rbp,%rsi
  402fb0:	89 df                	mov    %ebx,%edi
  402fb2:	e8 49 e2 ff ff       	callq  401200 <connect@plt>
  402fb7:	85 c0                	test   %eax,%eax
  402fb9:	0f 88 e7 00 00 00    	js     4030a6 <init_driver+0x1a3>
  402fbf:	89 df                	mov    %ebx,%edi
  402fc1:	e8 1a e1 ff ff       	callq  4010e0 <close@plt>
  402fc6:	66 41 c7 04 24 4f 4b 	movw   $0x4b4f,(%r12)
  402fcd:	41 c6 44 24 02 00    	movb   $0x0,0x2(%r12)
  402fd3:	b8 00 00 00 00       	mov    $0x0,%eax
  402fd8:	48 83 c4 10          	add    $0x10,%rsp
  402fdc:	5b                   	pop    %rbx
  402fdd:	5d                   	pop    %rbp
  402fde:	41 5c                	pop    %r12
  402fe0:	c3                   	retq   
  402fe1:	48 b8 45 72 72 6f 72 	movabs $0x43203a726f727245,%rax
  402fe8:	3a 20 43 
  402feb:	48 ba 6c 69 65 6e 74 	movabs $0x6e7520746e65696c,%rdx
  402ff2:	20 75 6e 
  402ff5:	49 89 04 24          	mov    %rax,(%r12)
  402ff9:	49 89 54 24 08       	mov    %rdx,0x8(%r12)
  402ffe:	48 b8 61 62 6c 65 20 	movabs $0x206f7420656c6261,%rax
  403005:	74 6f 20 
  403008:	48 ba 63 72 65 61 74 	movabs $0x7320657461657263,%rdx
  40300f:	65 20 73 
  403012:	49 89 44 24 10       	mov    %rax,0x10(%r12)
  403017:	49 89 54 24 18       	mov    %rdx,0x18(%r12)
  40301c:	41 c7 44 24 20 6f 63 	movl   $0x656b636f,0x20(%r12)
  403023:	6b 65 
  403025:	66 41 c7 44 24 24 74 	movw   $0x74,0x24(%r12)
  40302c:	00 
  40302d:	b8 ff ff ff ff       	mov    $0xffffffff,%eax
  403032:	eb a4                	jmp    402fd8 <init_driver+0xd5>
  403034:	48 b8 45 72 72 6f 72 	movabs $0x44203a726f727245,%rax
  40303b:	3a 20 44 
  40303e:	48 ba 4e 53 20 69 73 	movabs $0x6e7520736920534e,%rdx
  403045:	20 75 6e 
  403048:	49 89 04 24          	mov    %rax,(%r12)
  40304c:	49 89 54 24 08       	mov    %rdx,0x8(%r12)
  403051:	48 b8 61 62 6c 65 20 	movabs $0x206f7420656c6261,%rax
  403058:	74 6f 20 
  40305b:	48 ba 72 65 73 6f 6c 	movabs $0x2065766c6f736572,%rdx
  403062:	76 65 20 
  403065:	49 89 44 24 10       	mov    %rax,0x10(%r12)
  40306a:	49 89 54 24 18       	mov    %rdx,0x18(%r12)
  40306f:	48 b8 73 65 72 76 65 	movabs $0x6120726576726573,%rax
  403076:	72 20 61 
  403079:	49 89 44 24 20       	mov    %rax,0x20(%r12)
  40307e:	41 c7 44 24 28 64 64 	movl   $0x65726464,0x28(%r12)
  403085:	72 65 
  403087:	66 41 c7 44 24 2c 73 	movw   $0x7373,0x2c(%r12)
  40308e:	73 
  40308f:	41 c6 44 24 2e 00    	movb   $0x0,0x2e(%r12)
  403095:	89 df                	mov    %ebx,%edi
  403097:	e8 44 e0 ff ff       	callq  4010e0 <close@plt>
  40309c:	b8 ff ff ff ff       	mov    $0xffffffff,%eax
  4030a1:	e9 32 ff ff ff       	jmpq   402fd8 <init_driver+0xd5>
  4030a6:	48 b8 45 72 72 6f 72 	movabs $0x55203a726f727245,%rax
  4030ad:	3a 20 55 
  4030b0:	48 ba 6e 61 62 6c 65 	movabs $0x6f7420656c62616e,%rdx
  4030b7:	20 74 6f 
  4030ba:	49 89 04 24          	mov    %rax,(%r12)
  4030be:	49 89 54 24 08       	mov    %rdx,0x8(%r12)
  4030c3:	48 b8 20 63 6f 6e 6e 	movabs $0x7463656e6e6f6320,%rax
  4030ca:	65 63 74 
  4030cd:	48 ba 20 74 6f 20 73 	movabs $0x76726573206f7420,%rdx
  4030d4:	65 72 76 
  4030d7:	49 89 44 24 10       	mov    %rax,0x10(%r12)
  4030dc:	49 89 54 24 18       	mov    %rdx,0x18(%r12)
  4030e1:	66 41 c7 44 24 20 65 	movw   $0x7265,0x20(%r12)
  4030e8:	72 
  4030e9:	41 c6 44 24 22 00    	movb   $0x0,0x22(%r12)
  4030ef:	89 df                	mov    %ebx,%edi
  4030f1:	e8 ea df ff ff       	callq  4010e0 <close@plt>
  4030f6:	b8 ff ff ff ff       	mov    $0xffffffff,%eax
  4030fb:	e9 d8 fe ff ff       	jmpq   402fd8 <init_driver+0xd5>

0000000000403100 <driver_post>:
  403100:	53                   	push   %rbx
  403101:	4c 89 cb             	mov    %r9,%rbx
  403104:	45 85 c0             	test   %r8d,%r8d
  403107:	75 18                	jne    403121 <driver_post+0x21>
  403109:	48 85 ff             	test   %rdi,%rdi
  40310c:	74 05                	je     403113 <driver_post+0x13>
  40310e:	80 3f 00             	cmpb   $0x0,(%rdi)
  403111:	75 32                	jne    403145 <driver_post+0x45>
  403113:	66 c7 03 4f 4b       	movw   $0x4b4f,(%rbx)
  403118:	c6 43 02 00          	movb   $0x0,0x2(%rbx)
  40311c:	44 89 c0             	mov    %r8d,%eax
  40311f:	5b                   	pop    %rbx
  403120:	c3                   	retq   
  403121:	48 89 ce             	mov    %rcx,%rsi
  403124:	48 8d 3d 5c 16 00 00 	lea    0x165c(%rip),%rdi        # 404787 <trans_char+0xd7>
  40312b:	b8 00 00 00 00       	mov    $0x0,%eax
  403130:	e8 7b df ff ff       	callq  4010b0 <printf@plt>
  403135:	66 c7 03 4f 4b       	movw   $0x4b4f,(%rbx)
  40313a:	c6 43 02 00          	movb   $0x0,0x2(%rbx)
  40313e:	b8 00 00 00 00       	mov    $0x0,%eax
  403143:	eb da                	jmp    40311f <driver_post+0x1f>
  403145:	48 83 ec 08          	sub    $0x8,%rsp
  403149:	41 51                	push   %r9
  40314b:	49 89 c9             	mov    %rcx,%r9
  40314e:	49 89 d0             	mov    %rdx,%r8
  403151:	48 89 f9             	mov    %rdi,%rcx
  403154:	48 89 f2             	mov    %rsi,%rdx
  403157:	be a4 3c 00 00       	mov    $0x3ca4,%esi
  40315c:	48 8d 3d 16 16 00 00 	lea    0x1616(%rip),%rdi        # 404779 <trans_char+0xc9>
  403163:	e8 1e f6 ff ff       	callq  402786 <submitr>
  403168:	48 83 c4 10          	add    $0x10,%rsp
  40316c:	eb b1                	jmp    40311f <driver_post+0x1f>

000000000040316e <check>:
  40316e:	89 f8                	mov    %edi,%eax
  403170:	c1 e8 1c             	shr    $0x1c,%eax
  403173:	74 1d                	je     403192 <check+0x24>
  403175:	b9 00 00 00 00       	mov    $0x0,%ecx
  40317a:	83 f9 1f             	cmp    $0x1f,%ecx
  40317d:	7f 0d                	jg     40318c <check+0x1e>
  40317f:	89 f8                	mov    %edi,%eax
  403181:	d3 e8                	shr    %cl,%eax
  403183:	3c 0a                	cmp    $0xa,%al
  403185:	74 11                	je     403198 <check+0x2a>
  403187:	83 c1 08             	add    $0x8,%ecx
  40318a:	eb ee                	jmp    40317a <check+0xc>
  40318c:	b8 01 00 00 00       	mov    $0x1,%eax
  403191:	c3                   	retq   
  403192:	b8 00 00 00 00       	mov    $0x0,%eax
  403197:	c3                   	retq   
  403198:	b8 00 00 00 00       	mov    $0x0,%eax
  40319d:	c3                   	retq   

000000000040319e <gencookie>:
  40319e:	53                   	push   %rbx
  40319f:	83 c7 01             	add    $0x1,%edi
  4031a2:	e8 a9 de ff ff       	callq  401050 <srandom@plt>
  4031a7:	e8 b4 df ff ff       	callq  401160 <random@plt>
  4031ac:	89 c3                	mov    %eax,%ebx
  4031ae:	89 c7                	mov    %eax,%edi
  4031b0:	e8 b9 ff ff ff       	callq  40316e <check>
  4031b5:	85 c0                	test   %eax,%eax
  4031b7:	74 ee                	je     4031a7 <gencookie+0x9>
  4031b9:	89 d8                	mov    %ebx,%eax
  4031bb:	5b                   	pop    %rbx
  4031bc:	c3                   	retq   
  4031bd:	0f 1f 00             	nopl   (%rax)

00000000004031c0 <__libc_csu_init>:
  4031c0:	41 57                	push   %r15
  4031c2:	49 89 d7             	mov    %rdx,%r15
  4031c5:	41 56                	push   %r14
  4031c7:	49 89 f6             	mov    %rsi,%r14
  4031ca:	41 55                	push   %r13
  4031cc:	41 89 fd             	mov    %edi,%r13d
  4031cf:	41 54                	push   %r12
  4031d1:	4c 8d 25 38 3c 00 00 	lea    0x3c38(%rip),%r12        # 406e10 <__frame_dummy_init_array_entry>
  4031d8:	55                   	push   %rbp
  4031d9:	48 8d 2d 38 3c 00 00 	lea    0x3c38(%rip),%rbp        # 406e18 <__init_array_end>
  4031e0:	53                   	push   %rbx
  4031e1:	4c 29 e5             	sub    %r12,%rbp
  4031e4:	48 83 ec 08          	sub    $0x8,%rsp
  4031e8:	e8 13 de ff ff       	callq  401000 <_init>
  4031ed:	48 c1 fd 03          	sar    $0x3,%rbp
  4031f1:	74 1b                	je     40320e <__libc_csu_init+0x4e>
  4031f3:	31 db                	xor    %ebx,%ebx
  4031f5:	0f 1f 00             	nopl   (%rax)
  4031f8:	4c 89 fa             	mov    %r15,%rdx
  4031fb:	4c 89 f6             	mov    %r14,%rsi
  4031fe:	44 89 ef             	mov    %r13d,%edi
  403201:	41 ff 14 dc          	callq  *(%r12,%rbx,8)
  403205:	48 83 c3 01          	add    $0x1,%rbx
  403209:	48 39 dd             	cmp    %rbx,%rbp
  40320c:	75 ea                	jne    4031f8 <__libc_csu_init+0x38>
  40320e:	48 83 c4 08          	add    $0x8,%rsp
  403212:	5b                   	pop    %rbx
  403213:	5d                   	pop    %rbp
  403214:	41 5c                	pop    %r12
  403216:	41 5d                	pop    %r13
  403218:	41 5e                	pop    %r14
  40321a:	41 5f                	pop    %r15
  40321c:	c3                   	retq   
  40321d:	0f 1f 00             	nopl   (%rax)

0000000000403220 <__libc_csu_fini>:
  403220:	c3                   	retq   

Disassembly of section .fini:

0000000000403224 <_fini>:
  403224:	48 83 ec 08          	sub    $0x8,%rsp
  403228:	48 83 c4 08          	add    $0x8,%rsp
  40322c:	c3                   	retq   
