
bomb:     file format elf64-x86-64


Disassembly of section .init:

0000000000401000 <_init>:
  401000:	48 83 ec 08          	sub    $0x8,%rsp
  401004:	48 8b 05 ed 3f 00 00 	mov    0x3fed(%rip),%rax        # 404ff8 <__gmon_start__>
  40100b:	48 85 c0             	test   %rax,%rax
  40100e:	74 02                	je     401012 <_init+0x12>
  401010:	ff d0                	callq  *%rax
  401012:	48 83 c4 08          	add    $0x8,%rsp
  401016:	c3                   	retq   

Disassembly of section .plt:

0000000000401020 <.plt>:
  401020:	ff 35 e2 3f 00 00    	pushq  0x3fe2(%rip)        # 405008 <_GLOBAL_OFFSET_TABLE_+0x8>
  401026:	ff 25 e4 3f 00 00    	jmpq   *0x3fe4(%rip)        # 405010 <_GLOBAL_OFFSET_TABLE_+0x10>
  40102c:	0f 1f 40 00          	nopl   0x0(%rax)

0000000000401030 <getenv@plt>:
  401030:	ff 25 e2 3f 00 00    	jmpq   *0x3fe2(%rip)        # 405018 <getenv@GLIBC_2.2.5>
  401036:	68 00 00 00 00       	pushq  $0x0
  40103b:	e9 e0 ff ff ff       	jmpq   401020 <.plt>

0000000000401040 <__errno_location@plt>:
  401040:	ff 25 da 3f 00 00    	jmpq   *0x3fda(%rip)        # 405020 <__errno_location@GLIBC_2.2.5>
  401046:	68 01 00 00 00       	pushq  $0x1
  40104b:	e9 d0 ff ff ff       	jmpq   401020 <.plt>

0000000000401050 <strcpy@plt>:
  401050:	ff 25 d2 3f 00 00    	jmpq   *0x3fd2(%rip)        # 405028 <strcpy@GLIBC_2.2.5>
  401056:	68 02 00 00 00       	pushq  $0x2
  40105b:	e9 c0 ff ff ff       	jmpq   401020 <.plt>

0000000000401060 <puts@plt>:
  401060:	ff 25 ca 3f 00 00    	jmpq   *0x3fca(%rip)        # 405030 <puts@GLIBC_2.2.5>
  401066:	68 03 00 00 00       	pushq  $0x3
  40106b:	e9 b0 ff ff ff       	jmpq   401020 <.plt>

0000000000401070 <write@plt>:
  401070:	ff 25 c2 3f 00 00    	jmpq   *0x3fc2(%rip)        # 405038 <write@GLIBC_2.2.5>
  401076:	68 04 00 00 00       	pushq  $0x4
  40107b:	e9 a0 ff ff ff       	jmpq   401020 <.plt>

0000000000401080 <fclose@plt>:
  401080:	ff 25 ba 3f 00 00    	jmpq   *0x3fba(%rip)        # 405040 <fclose@GLIBC_2.2.5>
  401086:	68 05 00 00 00       	pushq  $0x5
  40108b:	e9 90 ff ff ff       	jmpq   401020 <.plt>

0000000000401090 <system@plt>:
  401090:	ff 25 b2 3f 00 00    	jmpq   *0x3fb2(%rip)        # 405048 <system@GLIBC_2.2.5>
  401096:	68 06 00 00 00       	pushq  $0x6
  40109b:	e9 80 ff ff ff       	jmpq   401020 <.plt>

00000000004010a0 <printf@plt>:
  4010a0:	ff 25 aa 3f 00 00    	jmpq   *0x3faa(%rip)        # 405050 <printf@GLIBC_2.2.5>
  4010a6:	68 07 00 00 00       	pushq  $0x7
  4010ab:	e9 70 ff ff ff       	jmpq   401020 <.plt>

00000000004010b0 <rewind@plt>:
  4010b0:	ff 25 a2 3f 00 00    	jmpq   *0x3fa2(%rip)        # 405058 <rewind@GLIBC_2.2.5>
  4010b6:	68 08 00 00 00       	pushq  $0x8
  4010bb:	e9 60 ff ff ff       	jmpq   401020 <.plt>

00000000004010c0 <dup@plt>:
  4010c0:	ff 25 9a 3f 00 00    	jmpq   *0x3f9a(%rip)        # 405060 <dup@GLIBC_2.2.5>
  4010c6:	68 09 00 00 00       	pushq  $0x9
  4010cb:	e9 50 ff ff ff       	jmpq   401020 <.plt>

00000000004010d0 <close@plt>:
  4010d0:	ff 25 92 3f 00 00    	jmpq   *0x3f92(%rip)        # 405068 <close@GLIBC_2.2.5>
  4010d6:	68 0a 00 00 00       	pushq  $0xa
  4010db:	e9 40 ff ff ff       	jmpq   401020 <.plt>

00000000004010e0 <fputc@plt>:
  4010e0:	ff 25 8a 3f 00 00    	jmpq   *0x3f8a(%rip)        # 405070 <fputc@GLIBC_2.2.5>
  4010e6:	68 0b 00 00 00       	pushq  $0xb
  4010eb:	e9 30 ff ff ff       	jmpq   401020 <.plt>

00000000004010f0 <fgets@plt>:
  4010f0:	ff 25 82 3f 00 00    	jmpq   *0x3f82(%rip)        # 405078 <fgets@GLIBC_2.2.5>
  4010f6:	68 0c 00 00 00       	pushq  $0xc
  4010fb:	e9 20 ff ff ff       	jmpq   401020 <.plt>

0000000000401100 <tmpfile@plt>:
  401100:	ff 25 7a 3f 00 00    	jmpq   *0x3f7a(%rip)        # 405080 <tmpfile@GLIBC_2.2.5>
  401106:	68 0d 00 00 00       	pushq  $0xd
  40110b:	e9 10 ff ff ff       	jmpq   401020 <.plt>

0000000000401110 <signal@plt>:
  401110:	ff 25 72 3f 00 00    	jmpq   *0x3f72(%rip)        # 405088 <signal@GLIBC_2.2.5>
  401116:	68 0e 00 00 00       	pushq  $0xe
  40111b:	e9 00 ff ff ff       	jmpq   401020 <.plt>

0000000000401120 <gethostbyname@plt>:
  401120:	ff 25 6a 3f 00 00    	jmpq   *0x3f6a(%rip)        # 405090 <gethostbyname@GLIBC_2.2.5>
  401126:	68 0f 00 00 00       	pushq  $0xf
  40112b:	e9 f0 fe ff ff       	jmpq   401020 <.plt>

0000000000401130 <fprintf@plt>:
  401130:	ff 25 62 3f 00 00    	jmpq   *0x3f62(%rip)        # 405098 <fprintf@GLIBC_2.2.5>
  401136:	68 10 00 00 00       	pushq  $0x10
  40113b:	e9 e0 fe ff ff       	jmpq   401020 <.plt>

0000000000401140 <strtol@plt>:
  401140:	ff 25 5a 3f 00 00    	jmpq   *0x3f5a(%rip)        # 4050a0 <strtol@GLIBC_2.2.5>
  401146:	68 11 00 00 00       	pushq  $0x11
  40114b:	e9 d0 fe ff ff       	jmpq   401020 <.plt>

0000000000401150 <inet_pton@plt>:
  401150:	ff 25 52 3f 00 00    	jmpq   *0x3f52(%rip)        # 4050a8 <inet_pton@GLIBC_2.2.5>
  401156:	68 12 00 00 00       	pushq  $0x12
  40115b:	e9 c0 fe ff ff       	jmpq   401020 <.plt>

0000000000401160 <fflush@plt>:
  401160:	ff 25 4a 3f 00 00    	jmpq   *0x3f4a(%rip)        # 4050b0 <fflush@GLIBC_2.2.5>
  401166:	68 13 00 00 00       	pushq  $0x13
  40116b:	e9 b0 fe ff ff       	jmpq   401020 <.plt>

0000000000401170 <__isoc99_sscanf@plt>:
  401170:	ff 25 42 3f 00 00    	jmpq   *0x3f42(%rip)        # 4050b8 <__isoc99_sscanf@GLIBC_2.7>
  401176:	68 14 00 00 00       	pushq  $0x14
  40117b:	e9 a0 fe ff ff       	jmpq   401020 <.plt>

0000000000401180 <memmove@plt>:
  401180:	ff 25 3a 3f 00 00    	jmpq   *0x3f3a(%rip)        # 4050c0 <memmove@GLIBC_2.2.5>
  401186:	68 15 00 00 00       	pushq  $0x15
  40118b:	e9 90 fe ff ff       	jmpq   401020 <.plt>

0000000000401190 <cuserid@plt>:
  401190:	ff 25 32 3f 00 00    	jmpq   *0x3f32(%rip)        # 4050c8 <cuserid@GLIBC_2.2.5>
  401196:	68 16 00 00 00       	pushq  $0x16
  40119b:	e9 80 fe ff ff       	jmpq   401020 <.plt>

00000000004011a0 <fopen@plt>:
  4011a0:	ff 25 2a 3f 00 00    	jmpq   *0x3f2a(%rip)        # 4050d0 <fopen@GLIBC_2.2.5>
  4011a6:	68 17 00 00 00       	pushq  $0x17
  4011ab:	e9 70 fe ff ff       	jmpq   401020 <.plt>

00000000004011b0 <strcat@plt>:
  4011b0:	ff 25 22 3f 00 00    	jmpq   *0x3f22(%rip)        # 4050d8 <strcat@GLIBC_2.2.5>
  4011b6:	68 18 00 00 00       	pushq  $0x18
  4011bb:	e9 60 fe ff ff       	jmpq   401020 <.plt>

00000000004011c0 <sprintf@plt>:
  4011c0:	ff 25 1a 3f 00 00    	jmpq   *0x3f1a(%rip)        # 4050e0 <sprintf@GLIBC_2.2.5>
  4011c6:	68 19 00 00 00       	pushq  $0x19
  4011cb:	e9 50 fe ff ff       	jmpq   401020 <.plt>

00000000004011d0 <exit@plt>:
  4011d0:	ff 25 12 3f 00 00    	jmpq   *0x3f12(%rip)        # 4050e8 <exit@GLIBC_2.2.5>
  4011d6:	68 1a 00 00 00       	pushq  $0x1a
  4011db:	e9 40 fe ff ff       	jmpq   401020 <.plt>

00000000004011e0 <connect@plt>:
  4011e0:	ff 25 0a 3f 00 00    	jmpq   *0x3f0a(%rip)        # 4050f0 <connect@GLIBC_2.2.5>
  4011e6:	68 1b 00 00 00       	pushq  $0x1b
  4011eb:	e9 30 fe ff ff       	jmpq   401020 <.plt>

00000000004011f0 <fwrite@plt>:
  4011f0:	ff 25 02 3f 00 00    	jmpq   *0x3f02(%rip)        # 4050f8 <fwrite@GLIBC_2.2.5>
  4011f6:	68 1c 00 00 00       	pushq  $0x1c
  4011fb:	e9 20 fe ff ff       	jmpq   401020 <.plt>

0000000000401200 <sleep@plt>:
  401200:	ff 25 fa 3e 00 00    	jmpq   *0x3efa(%rip)        # 405100 <sleep@GLIBC_2.2.5>
  401206:	68 1d 00 00 00       	pushq  $0x1d
  40120b:	e9 10 fe ff ff       	jmpq   401020 <.plt>

0000000000401210 <__ctype_b_loc@plt>:
  401210:	ff 25 f2 3e 00 00    	jmpq   *0x3ef2(%rip)        # 405108 <__ctype_b_loc@GLIBC_2.3>
  401216:	68 1e 00 00 00       	pushq  $0x1e
  40121b:	e9 00 fe ff ff       	jmpq   401020 <.plt>

0000000000401220 <socket@plt>:
  401220:	ff 25 ea 3e 00 00    	jmpq   *0x3eea(%rip)        # 405110 <socket@GLIBC_2.2.5>
  401226:	68 1f 00 00 00       	pushq  $0x1f
  40122b:	e9 f0 fd ff ff       	jmpq   401020 <.plt>

Disassembly of section .text:

0000000000401230 <_start>:
  401230:	31 ed                	xor    %ebp,%ebp
  401232:	49 89 d1             	mov    %rdx,%r9
  401235:	5e                   	pop    %rsi
  401236:	48 89 e2             	mov    %rsp,%rdx
  401239:	48 83 e4 f0          	and    $0xfffffffffffffff0,%rsp
  40123d:	50                   	push   %rax
  40123e:	54                   	push   %rsp
  40123f:	49 c7 c0 90 22 40 00 	mov    $0x402290,%r8
  401246:	48 c7 c1 30 22 40 00 	mov    $0x402230,%rcx
  40124d:	48 c7 c7 12 13 40 00 	mov    $0x401312,%rdi
  401254:	ff 15 96 3d 00 00    	callq  *0x3d96(%rip)        # 404ff0 <__libc_start_main@GLIBC_2.2.5>
  40125a:	f4                   	hlt    
  40125b:	0f 1f 44 00 00       	nopl   0x0(%rax,%rax,1)

0000000000401260 <_dl_relocate_static_pie>:
  401260:	c3                   	retq   
  401261:	66 2e 0f 1f 84 00 00 	nopw   %cs:0x0(%rax,%rax,1)
  401268:	00 00 00 
  40126b:	0f 1f 44 00 00       	nopl   0x0(%rax,%rax,1)

0000000000401270 <deregister_tm_clones>:
  401270:	b8 d0 57 40 00       	mov    $0x4057d0,%eax
  401275:	48 3d d0 57 40 00    	cmp    $0x4057d0,%rax
  40127b:	74 13                	je     401290 <deregister_tm_clones+0x20>
  40127d:	b8 00 00 00 00       	mov    $0x0,%eax
  401282:	48 85 c0             	test   %rax,%rax
  401285:	74 09                	je     401290 <deregister_tm_clones+0x20>
  401287:	bf d0 57 40 00       	mov    $0x4057d0,%edi
  40128c:	ff e0                	jmpq   *%rax
  40128e:	66 90                	xchg   %ax,%ax
  401290:	c3                   	retq   
  401291:	66 66 2e 0f 1f 84 00 	data16 nopw %cs:0x0(%rax,%rax,1)
  401298:	00 00 00 00 
  40129c:	0f 1f 40 00          	nopl   0x0(%rax)

00000000004012a0 <register_tm_clones>:
  4012a0:	be d0 57 40 00       	mov    $0x4057d0,%esi
  4012a5:	48 81 ee d0 57 40 00 	sub    $0x4057d0,%rsi
  4012ac:	48 c1 fe 03          	sar    $0x3,%rsi
  4012b0:	48 89 f0             	mov    %rsi,%rax
  4012b3:	48 c1 e8 3f          	shr    $0x3f,%rax
  4012b7:	48 01 c6             	add    %rax,%rsi
  4012ba:	48 d1 fe             	sar    %rsi
  4012bd:	74 11                	je     4012d0 <register_tm_clones+0x30>
  4012bf:	b8 00 00 00 00       	mov    $0x0,%eax
  4012c4:	48 85 c0             	test   %rax,%rax
  4012c7:	74 07                	je     4012d0 <register_tm_clones+0x30>
  4012c9:	bf d0 57 40 00       	mov    $0x4057d0,%edi
  4012ce:	ff e0                	jmpq   *%rax
  4012d0:	c3                   	retq   
  4012d1:	66 66 2e 0f 1f 84 00 	data16 nopw %cs:0x0(%rax,%rax,1)
  4012d8:	00 00 00 00 
  4012dc:	0f 1f 40 00          	nopl   0x0(%rax)

00000000004012e0 <__do_global_dtors_aux>:
  4012e0:	80 3d 11 45 00 00 00 	cmpb   $0x0,0x4511(%rip)        # 4057f8 <completed.7325>
  4012e7:	75 17                	jne    401300 <__do_global_dtors_aux+0x20>
  4012e9:	55                   	push   %rbp
  4012ea:	48 89 e5             	mov    %rsp,%rbp
  4012ed:	e8 7e ff ff ff       	callq  401270 <deregister_tm_clones>
  4012f2:	c6 05 ff 44 00 00 01 	movb   $0x1,0x44ff(%rip)        # 4057f8 <completed.7325>
  4012f9:	5d                   	pop    %rbp
  4012fa:	c3                   	retq   
  4012fb:	0f 1f 44 00 00       	nopl   0x0(%rax,%rax,1)
  401300:	c3                   	retq   
  401301:	66 66 2e 0f 1f 84 00 	data16 nopw %cs:0x0(%rax,%rax,1)
  401308:	00 00 00 00 
  40130c:	0f 1f 40 00          	nopl   0x0(%rax)

0000000000401310 <frame_dummy>:
  401310:	eb 8e                	jmp    4012a0 <register_tm_clones>

0000000000401312 <main>:
  401312:	53                   	push   %rbx
  401313:	83 ff 01             	cmp    $0x1,%edi
  401316:	0f 84 f8 00 00 00    	je     401414 <main+0x102>
  40131c:	48 89 f3             	mov    %rsi,%rbx
  40131f:	83 ff 02             	cmp    $0x2,%edi
  401322:	0f 85 1c 01 00 00    	jne    401444 <main+0x132>
  401328:	48 8b 7e 08          	mov    0x8(%rsi),%rdi
  40132c:	48 8d 35 e0 20 00 00 	lea    0x20e0(%rip),%rsi        # 403413 <array.3192+0x253>
  401333:	e8 68 fe ff ff       	callq  4011a0 <fopen@plt>
  401338:	48 89 05 c1 44 00 00 	mov    %rax,0x44c1(%rip)        # 405800 <infile>
  40133f:	48 85 c0             	test   %rax,%rax
  401342:	0f 84 df 00 00 00    	je     401427 <main+0x115>
  401348:	e8 ef 05 00 00       	callq  40193c <initialize_bomb>
  40134d:	48 8d 3d 34 1d 00 00 	lea    0x1d34(%rip),%rdi        # 403088 <_IO_stdin_used+0x88>
  401354:	e8 07 fd ff ff       	callq  401060 <puts@plt>
  401359:	48 8d 3d 68 1d 00 00 	lea    0x1d68(%rip),%rdi        # 4030c8 <_IO_stdin_used+0xc8>
  401360:	e8 fb fc ff ff       	callq  401060 <puts@plt>
  401365:	e8 21 0d 00 00       	callq  40208b <read_line>
  40136a:	48 89 c7             	mov    %rax,%rdi
  40136d:	e8 f0 00 00 00       	callq  401462 <phase_1>
  401372:	e8 15 0e 00 00       	callq  40218c <phase_defused>
  401377:	48 8d 3d 7a 1d 00 00 	lea    0x1d7a(%rip),%rdi        # 4030f8 <_IO_stdin_used+0xf8>
  40137e:	e8 dd fc ff ff       	callq  401060 <puts@plt>
  401383:	e8 03 0d 00 00       	callq  40208b <read_line>
  401388:	48 89 c7             	mov    %rax,%rdi
  40138b:	e8 f2 00 00 00       	callq  401482 <phase_2>
  401390:	e8 f7 0d 00 00       	callq  40218c <phase_defused>
  401395:	48 8d 3d 9f 1c 00 00 	lea    0x1c9f(%rip),%rdi        # 40303b <_IO_stdin_used+0x3b>
  40139c:	e8 bf fc ff ff       	callq  401060 <puts@plt>
  4013a1:	e8 e5 0c 00 00       	callq  40208b <read_line>
  4013a6:	48 89 c7             	mov    %rax,%rdi
  4013a9:	e8 2b 01 00 00       	callq  4014d9 <phase_3>
  4013ae:	e8 d9 0d 00 00       	callq  40218c <phase_defused>
  4013b3:	48 8d 3d 9f 1c 00 00 	lea    0x1c9f(%rip),%rdi        # 403059 <_IO_stdin_used+0x59>
  4013ba:	e8 a1 fc ff ff       	callq  401060 <puts@plt>
  4013bf:	e8 c7 0c 00 00       	callq  40208b <read_line>
  4013c4:	48 89 c7             	mov    %rax,%rdi
  4013c7:	e8 d5 01 00 00       	callq  4015a1 <phase_4>
  4013cc:	e8 bb 0d 00 00       	callq  40218c <phase_defused>
  4013d1:	48 8d 3d 50 1d 00 00 	lea    0x1d50(%rip),%rdi        # 403128 <_IO_stdin_used+0x128>
  4013d8:	e8 83 fc ff ff       	callq  401060 <puts@plt>
  4013dd:	e8 a9 0c 00 00       	callq  40208b <read_line>
  4013e2:	48 89 c7             	mov    %rax,%rdi
  4013e5:	e8 fe 01 00 00       	callq  4015e8 <phase_5>
  4013ea:	e8 9d 0d 00 00       	callq  40218c <phase_defused>
  4013ef:	48 8d 3d 72 1c 00 00 	lea    0x1c72(%rip),%rdi        # 403068 <_IO_stdin_used+0x68>
  4013f6:	e8 65 fc ff ff       	callq  401060 <puts@plt>
  4013fb:	e8 8b 0c 00 00       	callq  40208b <read_line>
  401400:	48 89 c7             	mov    %rax,%rdi
  401403:	e8 83 02 00 00       	callq  40168b <phase_6>
  401408:	e8 7f 0d 00 00       	callq  40218c <phase_defused>
  40140d:	b8 00 00 00 00       	mov    $0x0,%eax
  401412:	5b                   	pop    %rbx
  401413:	c3                   	retq   
  401414:	48 8b 05 d5 43 00 00 	mov    0x43d5(%rip),%rax        # 4057f0 <stdin@@GLIBC_2.2.5>
  40141b:	48 89 05 de 43 00 00 	mov    %rax,0x43de(%rip)        # 405800 <infile>
  401422:	e9 21 ff ff ff       	jmpq   401348 <main+0x36>
  401427:	48 8b 53 08          	mov    0x8(%rbx),%rdx
  40142b:	48 8b 33             	mov    (%rbx),%rsi
  40142e:	48 8d 3d cf 1b 00 00 	lea    0x1bcf(%rip),%rdi        # 403004 <_IO_stdin_used+0x4>
  401435:	e8 66 fc ff ff       	callq  4010a0 <printf@plt>
  40143a:	bf 08 00 00 00       	mov    $0x8,%edi
  40143f:	e8 8c fd ff ff       	callq  4011d0 <exit@plt>
  401444:	48 8b 36             	mov    (%rsi),%rsi
  401447:	48 8d 3d d3 1b 00 00 	lea    0x1bd3(%rip),%rdi        # 403021 <_IO_stdin_used+0x21>
  40144e:	b8 00 00 00 00       	mov    $0x0,%eax
  401453:	e8 48 fc ff ff       	callq  4010a0 <printf@plt>
  401458:	bf 08 00 00 00       	mov    $0x8,%edi
  40145d:	e8 6e fd ff ff       	callq  4011d0 <exit@plt>

0000000000401462 <phase_1>:
  401462:	48 83 ec 08          	sub    $0x8,%rsp
  401466:	48 8d 35 e3 1c 00 00 	lea    0x1ce3(%rip),%rsi        # 403150 <_IO_stdin_used+0x150>
  40146d:	e8 8d 03 00 00       	callq  4017ff <strings_not_equal>
  401472:	85 c0                	test   %eax,%eax
  401474:	75 05                	jne    40147b <phase_1+0x19>
  401476:	48 83 c4 08          	add    $0x8,%rsp
  40147a:	c3                   	retq   
  40147b:	e8 8e 0b 00 00       	callq  40200e <explode_bomb>
  401480:	eb f4                	jmp    401476 <phase_1+0x14>

0000000000401482 <phase_2>:
  401482:	41 55                	push   %r13
  401484:	41 54                	push   %r12
  401486:	55                   	push   %rbp
  401487:	53                   	push   %rbx
  401488:	48 83 ec 28          	sub    $0x28,%rsp
  40148c:	49 89 e4             	mov    %rsp,%r12
  40148f:	4c 89 e6             	mov    %r12,%rsi
  401492:	e8 b3 0b 00 00       	callq  40204a <read_six_numbers>
  401497:	4c 89 e3             	mov    %r12,%rbx
  40149a:	49 83 c4 0c          	add    $0xc,%r12
  40149e:	bd 00 00 00 00       	mov    $0x0,%ebp
  4014a3:	eb 12                	jmp    4014b7 <phase_2+0x35>
  4014a5:	e8 64 0b 00 00       	callq  40200e <explode_bomb>
  4014aa:	41 03 6d 00          	add    0x0(%r13),%ebp
  4014ae:	48 83 c3 04          	add    $0x4,%rbx
  4014b2:	4c 39 e3             	cmp    %r12,%rbx
  4014b5:	74 0c                	je     4014c3 <phase_2+0x41>
  4014b7:	49 89 dd             	mov    %rbx,%r13
  4014ba:	8b 43 0c             	mov    0xc(%rbx),%eax
  4014bd:	39 03                	cmp    %eax,(%rbx)
  4014bf:	74 e9                	je     4014aa <phase_2+0x28>
  4014c1:	eb e2                	jmp    4014a5 <phase_2+0x23>
  4014c3:	85 ed                	test   %ebp,%ebp
  4014c5:	74 0b                	je     4014d2 <phase_2+0x50>
  4014c7:	48 83 c4 28          	add    $0x28,%rsp
  4014cb:	5b                   	pop    %rbx
  4014cc:	5d                   	pop    %rbp
  4014cd:	41 5c                	pop    %r12
  4014cf:	41 5d                	pop    %r13
  4014d1:	c3                   	retq   
  4014d2:	e8 37 0b 00 00       	callq  40200e <explode_bomb>
  4014d7:	eb ee                	jmp    4014c7 <phase_2+0x45>

00000000004014d9 <phase_3>:
  4014d9:	48 83 ec 18          	sub    $0x18,%rsp
  4014dd:	48 8d 4c 24 08       	lea    0x8(%rsp),%rcx
  4014e2:	48 8d 54 24 0c       	lea    0xc(%rsp),%rdx
  4014e7:	48 8d 35 2e 20 00 00 	lea    0x202e(%rip),%rsi        # 40351c <array.3192+0x35c>
  4014ee:	b8 00 00 00 00       	mov    $0x0,%eax
  4014f3:	e8 78 fc ff ff       	callq  401170 <__isoc99_sscanf@plt>
  4014f8:	83 f8 01             	cmp    $0x1,%eax
  4014fb:	7e 1b                	jle    401518 <phase_3+0x3f>
  4014fd:	83 7c 24 0c 07       	cmpl   $0x7,0xc(%rsp)
  401502:	77 4c                	ja     401550 <phase_3+0x77>
  401504:	8b 44 24 0c          	mov    0xc(%rsp),%eax
  401508:	48 8d 15 91 1c 00 00 	lea    0x1c91(%rip),%rdx        # 4031a0 <_IO_stdin_used+0x1a0>
  40150f:	48 63 04 82          	movslq (%rdx,%rax,4),%rax
  401513:	48 01 d0             	add    %rdx,%rax
  401516:	ff e0                	jmpq   *%rax
  401518:	e8 f1 0a 00 00       	callq  40200e <explode_bomb>
  40151d:	eb de                	jmp    4014fd <phase_3+0x24>
  40151f:	b8 e6 03 00 00       	mov    $0x3e6,%eax
  401524:	eb 3b                	jmp    401561 <phase_3+0x88>
  401526:	b8 af 02 00 00       	mov    $0x2af,%eax
  40152b:	eb 34                	jmp    401561 <phase_3+0x88>
  40152d:	b8 dd 01 00 00       	mov    $0x1dd,%eax
  401532:	eb 2d                	jmp    401561 <phase_3+0x88>
  401534:	b8 8d 00 00 00       	mov    $0x8d,%eax
  401539:	eb 26                	jmp    401561 <phase_3+0x88>
  40153b:	b8 97 03 00 00       	mov    $0x397,%eax
  401540:	eb 1f                	jmp    401561 <phase_3+0x88>
  401542:	b8 69 02 00 00       	mov    $0x269,%eax
  401547:	eb 18                	jmp    401561 <phase_3+0x88>
  401549:	b8 ba 03 00 00       	mov    $0x3ba,%eax
  40154e:	eb 11                	jmp    401561 <phase_3+0x88>
  401550:	e8 b9 0a 00 00       	callq  40200e <explode_bomb>
  401555:	b8 00 00 00 00       	mov    $0x0,%eax
  40155a:	eb 05                	jmp    401561 <phase_3+0x88>
  40155c:	b8 e5 01 00 00       	mov    $0x1e5,%eax
  401561:	39 44 24 08          	cmp    %eax,0x8(%rsp)
  401565:	75 05                	jne    40156c <phase_3+0x93>
  401567:	48 83 c4 18          	add    $0x18,%rsp
  40156b:	c3                   	retq   
  40156c:	e8 9d 0a 00 00       	callq  40200e <explode_bomb>
  401571:	eb f4                	jmp    401567 <phase_3+0x8e>

0000000000401573 <func4>:
  401573:	b8 01 00 00 00       	mov    $0x1,%eax
  401578:	83 ff 01             	cmp    $0x1,%edi
  40157b:	7e 23                	jle    4015a0 <func4+0x2d>
  40157d:	55                   	push   %rbp
  40157e:	53                   	push   %rbx
  40157f:	48 83 ec 08          	sub    $0x8,%rsp
  401583:	89 fb                	mov    %edi,%ebx
  401585:	8d 7f ff             	lea    -0x1(%rdi),%edi
  401588:	e8 e6 ff ff ff       	callq  401573 <func4>
  40158d:	89 c5                	mov    %eax,%ebp
  40158f:	8d 7b fe             	lea    -0x2(%rbx),%edi
  401592:	e8 dc ff ff ff       	callq  401573 <func4>
  401597:	01 e8                	add    %ebp,%eax
  401599:	48 83 c4 08          	add    $0x8,%rsp
  40159d:	5b                   	pop    %rbx
  40159e:	5d                   	pop    %rbp
  40159f:	c3                   	retq   
  4015a0:	c3                   	retq   

00000000004015a1 <phase_4>:
  4015a1:	48 83 ec 18          	sub    $0x18,%rsp
  4015a5:	48 8d 54 24 0c       	lea    0xc(%rsp),%rdx
  4015aa:	48 8d 35 6e 1f 00 00 	lea    0x1f6e(%rip),%rsi        # 40351f <array.3192+0x35f>
  4015b1:	b8 00 00 00 00       	mov    $0x0,%eax
  4015b6:	e8 b5 fb ff ff       	callq  401170 <__isoc99_sscanf@plt>
  4015bb:	83 f8 01             	cmp    $0x1,%eax
  4015be:	75 07                	jne    4015c7 <phase_4+0x26>
  4015c0:	83 7c 24 0c 00       	cmpl   $0x0,0xc(%rsp)
  4015c5:	7f 05                	jg     4015cc <phase_4+0x2b>
  4015c7:	e8 42 0a 00 00       	callq  40200e <explode_bomb>
  4015cc:	8b 7c 24 0c          	mov    0xc(%rsp),%edi
  4015d0:	e8 9e ff ff ff       	callq  401573 <func4>
  4015d5:	3d 55 10 00 00       	cmp    $0x1055,%eax
  4015da:	75 05                	jne    4015e1 <phase_4+0x40>
  4015dc:	48 83 c4 18          	add    $0x18,%rsp
  4015e0:	c3                   	retq   
  4015e1:	e8 28 0a 00 00       	callq  40200e <explode_bomb>
  4015e6:	eb f4                	jmp    4015dc <phase_4+0x3b>

00000000004015e8 <phase_5>:
  4015e8:	53                   	push   %rbx
  4015e9:	48 89 fb             	mov    %rdi,%rbx
  4015ec:	e8 f1 01 00 00       	callq  4017e2 <string_length>
  4015f1:	83 f8 06             	cmp    $0x6,%eax
  4015f4:	75 2c                	jne    401622 <phase_5+0x3a>
  4015f6:	48 89 d8             	mov    %rbx,%rax
  4015f9:	48 8d 7b 06          	lea    0x6(%rbx),%rdi
  4015fd:	b9 00 00 00 00       	mov    $0x0,%ecx
  401602:	48 8d 35 b7 1b 00 00 	lea    0x1bb7(%rip),%rsi        # 4031c0 <array.3192>
  401609:	0f b6 10             	movzbl (%rax),%edx
  40160c:	83 e2 0f             	and    $0xf,%edx
  40160f:	03 0c 96             	add    (%rsi,%rdx,4),%ecx
  401612:	48 83 c0 01          	add    $0x1,%rax
  401616:	48 39 f8             	cmp    %rdi,%rax
  401619:	75 ee                	jne    401609 <phase_5+0x21>
  40161b:	83 f9 3e             	cmp    $0x3e,%ecx
  40161e:	75 09                	jne    401629 <phase_5+0x41>
  401620:	5b                   	pop    %rbx
  401621:	c3                   	retq   
  401622:	e8 e7 09 00 00       	callq  40200e <explode_bomb>
  401627:	eb cd                	jmp    4015f6 <phase_5+0xe>
  401629:	e8 e0 09 00 00       	callq  40200e <explode_bomb>
  40162e:	eb f0                	jmp    401620 <phase_5+0x38>

0000000000401630 <fun6>:
  401630:	48 89 f8             	mov    %rdi,%rax
  401633:	4c 8b 47 08          	mov    0x8(%rdi),%r8
  401637:	48 c7 47 08 00 00 00 	movq   $0x0,0x8(%rdi)
  40163e:	00 
  40163f:	4d 85 c0             	test   %r8,%r8
  401642:	75 2a                	jne    40166e <fun6+0x3e>
  401644:	c3                   	retq   
  401645:	48 89 d1             	mov    %rdx,%rcx
  401648:	48 8b 51 08          	mov    0x8(%rcx),%rdx
  40164c:	48 85 d2             	test   %rdx,%rdx
  40164f:	74 09                	je     40165a <fun6+0x2a>
  401651:	39 32                	cmp    %esi,(%rdx)
  401653:	7f f0                	jg     401645 <fun6+0x15>
  401655:	48 39 ca             	cmp    %rcx,%rdx
  401658:	74 2b                	je     401685 <fun6+0x55>
  40165a:	4c 89 41 08          	mov    %r8,0x8(%rcx)
  40165e:	49 8b 48 08          	mov    0x8(%r8),%rcx
  401662:	49 89 50 08          	mov    %rdx,0x8(%r8)
  401666:	49 89 c8             	mov    %rcx,%r8
  401669:	48 85 c9             	test   %rcx,%rcx
  40166c:	74 1c                	je     40168a <fun6+0x5a>
  40166e:	48 85 c0             	test   %rax,%rax
  401671:	74 0a                	je     40167d <fun6+0x4d>
  401673:	41 8b 30             	mov    (%r8),%esi
  401676:	48 89 c1             	mov    %rax,%rcx
  401679:	39 30                	cmp    %esi,(%rax)
  40167b:	7f cb                	jg     401648 <fun6+0x18>
  40167d:	48 89 c2             	mov    %rax,%rdx
  401680:	4c 89 c0             	mov    %r8,%rax
  401683:	eb d9                	jmp    40165e <fun6+0x2e>
  401685:	4c 89 c0             	mov    %r8,%rax
  401688:	eb d4                	jmp    40165e <fun6+0x2e>
  40168a:	c3                   	retq   

000000000040168b <phase_6>:
  40168b:	53                   	push   %rbx
  40168c:	ba 0a 00 00 00       	mov    $0xa,%edx
  401691:	be 00 00 00 00       	mov    $0x0,%esi
  401696:	e8 a5 fa ff ff       	callq  401140 <strtol@plt>
  40169b:	48 89 c3             	mov    %rax,%rbx
  40169e:	48 8d 3d ab 40 00 00 	lea    0x40ab(%rip),%rdi        # 405750 <node1>
  4016a5:	e8 86 ff ff ff       	callq  401630 <fun6>
  4016aa:	48 8b 40 08          	mov    0x8(%rax),%rax
  4016ae:	48 8b 40 08          	mov    0x8(%rax),%rax
  4016b2:	48 8b 40 08          	mov    0x8(%rax),%rax
  4016b6:	48 8b 40 08          	mov    0x8(%rax),%rax
  4016ba:	48 8b 40 08          	mov    0x8(%rax),%rax
  4016be:	48 8b 40 08          	mov    0x8(%rax),%rax
  4016c2:	48 8b 40 08          	mov    0x8(%rax),%rax
  4016c6:	39 18                	cmp    %ebx,(%rax)
  4016c8:	75 02                	jne    4016cc <phase_6+0x41>
  4016ca:	5b                   	pop    %rbx
  4016cb:	c3                   	retq   
  4016cc:	e8 3d 09 00 00       	callq  40200e <explode_bomb>
  4016d1:	eb f7                	jmp    4016ca <phase_6+0x3f>

00000000004016d3 <fun7>:
  4016d3:	48 85 ff             	test   %rdi,%rdi
  4016d6:	74 32                	je     40170a <fun7+0x37>
  4016d8:	48 83 ec 08          	sub    $0x8,%rsp
  4016dc:	8b 17                	mov    (%rdi),%edx
  4016de:	39 f2                	cmp    %esi,%edx
  4016e0:	7f 0c                	jg     4016ee <fun7+0x1b>
  4016e2:	b8 00 00 00 00       	mov    $0x0,%eax
  4016e7:	75 12                	jne    4016fb <fun7+0x28>
  4016e9:	48 83 c4 08          	add    $0x8,%rsp
  4016ed:	c3                   	retq   
  4016ee:	48 8b 7f 08          	mov    0x8(%rdi),%rdi
  4016f2:	e8 dc ff ff ff       	callq  4016d3 <fun7>
  4016f7:	01 c0                	add    %eax,%eax
  4016f9:	eb ee                	jmp    4016e9 <fun7+0x16>
  4016fb:	48 8b 7f 10          	mov    0x10(%rdi),%rdi
  4016ff:	e8 cf ff ff ff       	callq  4016d3 <fun7>
  401704:	8d 44 00 01          	lea    0x1(%rax,%rax,1),%eax
  401708:	eb df                	jmp    4016e9 <fun7+0x16>
  40170a:	b8 ff ff ff ff       	mov    $0xffffffff,%eax
  40170f:	c3                   	retq   

0000000000401710 <secret_phase>:
  401710:	53                   	push   %rbx
  401711:	e8 75 09 00 00       	callq  40208b <read_line>
  401716:	ba 0a 00 00 00       	mov    $0xa,%edx
  40171b:	be 00 00 00 00       	mov    $0x0,%esi
  401720:	48 89 c7             	mov    %rax,%rdi
  401723:	e8 18 fa ff ff       	callq  401140 <strtol@plt>
  401728:	48 89 c3             	mov    %rax,%rbx
  40172b:	8d 40 ff             	lea    -0x1(%rax),%eax
  40172e:	3d e8 03 00 00       	cmp    $0x3e8,%eax
  401733:	77 26                	ja     40175b <secret_phase+0x4b>
  401735:	89 de                	mov    %ebx,%esi
  401737:	48 8d 3d 32 3f 00 00 	lea    0x3f32(%rip),%rdi        # 405670 <n1>
  40173e:	e8 90 ff ff ff       	callq  4016d3 <fun7>
  401743:	83 f8 04             	cmp    $0x4,%eax
  401746:	75 1a                	jne    401762 <secret_phase+0x52>
  401748:	48 8d 3d 29 1a 00 00 	lea    0x1a29(%rip),%rdi        # 403178 <_IO_stdin_used+0x178>
  40174f:	e8 0c f9 ff ff       	callq  401060 <puts@plt>
  401754:	e8 33 0a 00 00       	callq  40218c <phase_defused>
  401759:	5b                   	pop    %rbx
  40175a:	c3                   	retq   
  40175b:	e8 ae 08 00 00       	callq  40200e <explode_bomb>
  401760:	eb d3                	jmp    401735 <secret_phase+0x25>
  401762:	e8 a7 08 00 00       	callq  40200e <explode_bomb>
  401767:	eb df                	jmp    401748 <secret_phase+0x38>

0000000000401769 <sig_handler>:
  401769:	48 83 ec 08          	sub    $0x8,%rsp
  40176d:	48 8d 3d 8c 1a 00 00 	lea    0x1a8c(%rip),%rdi        # 403200 <array.3192+0x40>
  401774:	e8 e7 f8 ff ff       	callq  401060 <puts@plt>
  401779:	bf 03 00 00 00       	mov    $0x3,%edi
  40177e:	e8 7d fa ff ff       	callq  401200 <sleep@plt>
  401783:	48 8d 3d a7 1b 00 00 	lea    0x1ba7(%rip),%rdi        # 403331 <array.3192+0x171>
  40178a:	b8 00 00 00 00       	mov    $0x0,%eax
  40178f:	e8 0c f9 ff ff       	callq  4010a0 <printf@plt>
  401794:	48 8b 3d 45 40 00 00 	mov    0x4045(%rip),%rdi        # 4057e0 <stdout@@GLIBC_2.2.5>
  40179b:	e8 c0 f9 ff ff       	callq  401160 <fflush@plt>
  4017a0:	bf 01 00 00 00       	mov    $0x1,%edi
  4017a5:	e8 56 fa ff ff       	callq  401200 <sleep@plt>
  4017aa:	48 8d 3d 88 1b 00 00 	lea    0x1b88(%rip),%rdi        # 403339 <array.3192+0x179>
  4017b1:	e8 aa f8 ff ff       	callq  401060 <puts@plt>
  4017b6:	bf 10 00 00 00       	mov    $0x10,%edi
  4017bb:	e8 10 fa ff ff       	callq  4011d0 <exit@plt>

00000000004017c0 <invalid_phase>:
  4017c0:	48 83 ec 08          	sub    $0x8,%rsp
  4017c4:	48 89 fe             	mov    %rdi,%rsi
  4017c7:	48 8d 3d 73 1b 00 00 	lea    0x1b73(%rip),%rdi        # 403341 <array.3192+0x181>
  4017ce:	b8 00 00 00 00       	mov    $0x0,%eax
  4017d3:	e8 c8 f8 ff ff       	callq  4010a0 <printf@plt>
  4017d8:	bf 08 00 00 00       	mov    $0x8,%edi
  4017dd:	e8 ee f9 ff ff       	callq  4011d0 <exit@plt>

00000000004017e2 <string_length>:
  4017e2:	80 3f 00             	cmpb   $0x0,(%rdi)
  4017e5:	74 12                	je     4017f9 <string_length+0x17>
  4017e7:	b8 00 00 00 00       	mov    $0x0,%eax
  4017ec:	48 83 c7 01          	add    $0x1,%rdi
  4017f0:	83 c0 01             	add    $0x1,%eax
  4017f3:	80 3f 00             	cmpb   $0x0,(%rdi)
  4017f6:	75 f4                	jne    4017ec <string_length+0xa>
  4017f8:	c3                   	retq   
  4017f9:	b8 00 00 00 00       	mov    $0x0,%eax
  4017fe:	c3                   	retq   

00000000004017ff <strings_not_equal>:
  4017ff:	41 54                	push   %r12
  401801:	55                   	push   %rbp
  401802:	53                   	push   %rbx
  401803:	48 89 fb             	mov    %rdi,%rbx
  401806:	48 89 f5             	mov    %rsi,%rbp
  401809:	e8 d4 ff ff ff       	callq  4017e2 <string_length>
  40180e:	41 89 c4             	mov    %eax,%r12d
  401811:	48 89 ef             	mov    %rbp,%rdi
  401814:	e8 c9 ff ff ff       	callq  4017e2 <string_length>
  401819:	ba 01 00 00 00       	mov    $0x1,%edx
  40181e:	41 39 c4             	cmp    %eax,%r12d
  401821:	75 2f                	jne    401852 <strings_not_equal+0x53>
  401823:	0f b6 03             	movzbl (%rbx),%eax
  401826:	84 c0                	test   %al,%al
  401828:	74 2f                	je     401859 <strings_not_equal+0x5a>
  40182a:	3a 45 00             	cmp    0x0(%rbp),%al
  40182d:	75 31                	jne    401860 <strings_not_equal+0x61>
  40182f:	b8 01 00 00 00       	mov    $0x1,%eax
  401834:	0f b6 14 03          	movzbl (%rbx,%rax,1),%edx
  401838:	84 d2                	test   %dl,%dl
  40183a:	74 11                	je     40184d <strings_not_equal+0x4e>
  40183c:	48 83 c0 01          	add    $0x1,%rax
  401840:	38 54 05 ff          	cmp    %dl,-0x1(%rbp,%rax,1)
  401844:	74 ee                	je     401834 <strings_not_equal+0x35>
  401846:	ba 01 00 00 00       	mov    $0x1,%edx
  40184b:	eb 05                	jmp    401852 <strings_not_equal+0x53>
  40184d:	ba 00 00 00 00       	mov    $0x0,%edx
  401852:	89 d0                	mov    %edx,%eax
  401854:	5b                   	pop    %rbx
  401855:	5d                   	pop    %rbp
  401856:	41 5c                	pop    %r12
  401858:	c3                   	retq   
  401859:	ba 00 00 00 00       	mov    $0x0,%edx
  40185e:	eb f2                	jmp    401852 <strings_not_equal+0x53>
  401860:	ba 01 00 00 00       	mov    $0x1,%edx
  401865:	eb eb                	jmp    401852 <strings_not_equal+0x53>

0000000000401867 <open_clientfd>:
  401867:	41 54                	push   %r12
  401869:	55                   	push   %rbp
  40186a:	53                   	push   %rbx
  40186b:	48 83 ec 10          	sub    $0x10,%rsp
  40186f:	49 89 fc             	mov    %rdi,%r12
  401872:	89 f5                	mov    %esi,%ebp
  401874:	ba 00 00 00 00       	mov    $0x0,%edx
  401879:	be 01 00 00 00       	mov    $0x1,%esi
  40187e:	bf 02 00 00 00       	mov    $0x2,%edi
  401883:	e8 98 f9 ff ff       	callq  401220 <socket@plt>
  401888:	85 c0                	test   %eax,%eax
  40188a:	78 6e                	js     4018fa <open_clientfd+0x93>
  40188c:	89 c3                	mov    %eax,%ebx
  40188e:	4c 89 e7             	mov    %r12,%rdi
  401891:	e8 8a f8 ff ff       	callq  401120 <gethostbyname@plt>
  401896:	48 85 c0             	test   %rax,%rax
  401899:	74 75                	je     401910 <open_clientfd+0xa9>
  40189b:	49 89 e4             	mov    %rsp,%r12
  40189e:	48 c7 44 24 02 00 00 	movq   $0x0,0x2(%rsp)
  4018a5:	00 00 
  4018a7:	41 c7 44 24 0a 00 00 	movl   $0x0,0xa(%r12)
  4018ae:	00 00 
  4018b0:	66 41 c7 44 24 0e 00 	movw   $0x0,0xe(%r12)
  4018b7:	00 
  4018b8:	66 c7 04 24 02 00    	movw   $0x2,(%rsp)
  4018be:	48 63 50 14          	movslq 0x14(%rax),%rdx
  4018c2:	48 8b 40 18          	mov    0x18(%rax),%rax
  4018c6:	49 8d 7c 24 04       	lea    0x4(%r12),%rdi
  4018cb:	48 8b 30             	mov    (%rax),%rsi
  4018ce:	e8 ad f8 ff ff       	callq  401180 <memmove@plt>
  4018d3:	66 c1 c5 08          	rol    $0x8,%bp
  4018d7:	66 89 6c 24 02       	mov    %bp,0x2(%rsp)
  4018dc:	ba 10 00 00 00       	mov    $0x10,%edx
  4018e1:	4c 89 e6             	mov    %r12,%rsi
  4018e4:	89 df                	mov    %ebx,%edi
  4018e6:	e8 f5 f8 ff ff       	callq  4011e0 <connect@plt>
  4018eb:	85 c0                	test   %eax,%eax
  4018ed:	78 37                	js     401926 <open_clientfd+0xbf>
  4018ef:	89 d8                	mov    %ebx,%eax
  4018f1:	48 83 c4 10          	add    $0x10,%rsp
  4018f5:	5b                   	pop    %rbx
  4018f6:	5d                   	pop    %rbp
  4018f7:	41 5c                	pop    %r12
  4018f9:	c3                   	retq   
  4018fa:	48 8d 3d 51 1a 00 00 	lea    0x1a51(%rip),%rdi        # 403352 <array.3192+0x192>
  401901:	e8 5a f7 ff ff       	callq  401060 <puts@plt>
  401906:	bf 08 00 00 00       	mov    $0x8,%edi
  40190b:	e8 c0 f8 ff ff       	callq  4011d0 <exit@plt>
  401910:	48 8d 3d 49 1a 00 00 	lea    0x1a49(%rip),%rdi        # 403360 <array.3192+0x1a0>
  401917:	e8 44 f7 ff ff       	callq  401060 <puts@plt>
  40191c:	bf 08 00 00 00       	mov    $0x8,%edi
  401921:	e8 aa f8 ff ff       	callq  4011d0 <exit@plt>
  401926:	48 8d 3d 41 1a 00 00 	lea    0x1a41(%rip),%rdi        # 40336e <array.3192+0x1ae>
  40192d:	e8 2e f7 ff ff       	callq  401060 <puts@plt>
  401932:	bf 08 00 00 00       	mov    $0x8,%edi
  401937:	e8 94 f8 ff ff       	callq  4011d0 <exit@plt>

000000000040193c <initialize_bomb>:
  40193c:	48 83 ec 08          	sub    $0x8,%rsp
  401940:	48 8d 35 22 fe ff ff 	lea    -0x1de(%rip),%rsi        # 401769 <sig_handler>
  401947:	bf 02 00 00 00       	mov    $0x2,%edi
  40194c:	e8 bf f7 ff ff       	callq  401110 <signal@plt>
  401951:	be 50 00 00 00       	mov    $0x50,%esi
  401956:	48 8d 3d 1f 1a 00 00 	lea    0x1a1f(%rip),%rdi        # 40337c <array.3192+0x1bc>
  40195d:	e8 05 ff ff ff       	callq  401867 <open_clientfd>
  401962:	89 c7                	mov    %eax,%edi
  401964:	e8 67 f7 ff ff       	callq  4010d0 <close@plt>
  401969:	48 83 c4 08          	add    $0x8,%rsp
  40196d:	c3                   	retq   

000000000040196e <blank_line>:
  40196e:	55                   	push   %rbp
  40196f:	53                   	push   %rbx
  401970:	48 83 ec 08          	sub    $0x8,%rsp
  401974:	48 89 fd             	mov    %rdi,%rbp
  401977:	0f b6 5d 00          	movzbl 0x0(%rbp),%ebx
  40197b:	84 db                	test   %bl,%bl
  40197d:	74 1e                	je     40199d <blank_line+0x2f>
  40197f:	e8 8c f8 ff ff       	callq  401210 <__ctype_b_loc@plt>
  401984:	48 83 c5 01          	add    $0x1,%rbp
  401988:	48 0f be db          	movsbq %bl,%rbx
  40198c:	48 8b 00             	mov    (%rax),%rax
  40198f:	f6 44 58 01 20       	testb  $0x20,0x1(%rax,%rbx,2)
  401994:	75 e1                	jne    401977 <blank_line+0x9>
  401996:	b8 00 00 00 00       	mov    $0x0,%eax
  40199b:	eb 05                	jmp    4019a2 <blank_line+0x34>
  40199d:	b8 01 00 00 00       	mov    $0x1,%eax
  4019a2:	48 83 c4 08          	add    $0x8,%rsp
  4019a6:	5b                   	pop    %rbx
  4019a7:	5d                   	pop    %rbp
  4019a8:	c3                   	retq   

00000000004019a9 <skip>:
  4019a9:	55                   	push   %rbp
  4019aa:	53                   	push   %rbx
  4019ab:	48 83 ec 08          	sub    $0x8,%rsp
  4019af:	48 8d 2d 6a 3e 00 00 	lea    0x3e6a(%rip),%rbp        # 405820 <input_strings>
  4019b6:	48 63 05 3f 3e 00 00 	movslq 0x3e3f(%rip),%rax        # 4057fc <num_input_strings>
  4019bd:	48 8d 3c 80          	lea    (%rax,%rax,4),%rdi
  4019c1:	48 c1 e7 04          	shl    $0x4,%rdi
  4019c5:	48 01 ef             	add    %rbp,%rdi
  4019c8:	48 8b 15 31 3e 00 00 	mov    0x3e31(%rip),%rdx        # 405800 <infile>
  4019cf:	be 50 00 00 00       	mov    $0x50,%esi
  4019d4:	e8 17 f7 ff ff       	callq  4010f0 <fgets@plt>
  4019d9:	48 89 c3             	mov    %rax,%rbx
  4019dc:	48 85 c0             	test   %rax,%rax
  4019df:	74 0c                	je     4019ed <skip+0x44>
  4019e1:	48 89 c7             	mov    %rax,%rdi
  4019e4:	e8 85 ff ff ff       	callq  40196e <blank_line>
  4019e9:	85 c0                	test   %eax,%eax
  4019eb:	75 c9                	jne    4019b6 <skip+0xd>
  4019ed:	48 89 d8             	mov    %rbx,%rax
  4019f0:	48 83 c4 08          	add    $0x8,%rsp
  4019f4:	5b                   	pop    %rbx
  4019f5:	5d                   	pop    %rbp
  4019f6:	c3                   	retq   

00000000004019f7 <writen>:
  4019f7:	41 56                	push   %r14
  4019f9:	41 55                	push   %r13
  4019fb:	41 54                	push   %r12
  4019fd:	55                   	push   %rbp
  4019fe:	53                   	push   %rbx
  4019ff:	49 89 d6             	mov    %rdx,%r14
  401a02:	48 85 d2             	test   %rdx,%rdx
  401a05:	74 3b                	je     401a42 <writen+0x4b>
  401a07:	41 89 fc             	mov    %edi,%r12d
  401a0a:	48 89 f5             	mov    %rsi,%rbp
  401a0d:	48 89 d3             	mov    %rdx,%rbx
  401a10:	41 bd 00 00 00 00    	mov    $0x0,%r13d
  401a16:	eb 08                	jmp    401a20 <writen+0x29>
  401a18:	48 01 c5             	add    %rax,%rbp
  401a1b:	48 29 c3             	sub    %rax,%rbx
  401a1e:	74 22                	je     401a42 <writen+0x4b>
  401a20:	48 89 da             	mov    %rbx,%rdx
  401a23:	48 89 ee             	mov    %rbp,%rsi
  401a26:	44 89 e7             	mov    %r12d,%edi
  401a29:	e8 42 f6 ff ff       	callq  401070 <write@plt>
  401a2e:	48 85 c0             	test   %rax,%rax
  401a31:	7f e5                	jg     401a18 <writen+0x21>
  401a33:	e8 08 f6 ff ff       	callq  401040 <__errno_location@plt>
  401a38:	83 38 04             	cmpl   $0x4,(%rax)
  401a3b:	75 11                	jne    401a4e <writen+0x57>
  401a3d:	4c 89 e8             	mov    %r13,%rax
  401a40:	eb d6                	jmp    401a18 <writen+0x21>
  401a42:	4c 89 f0             	mov    %r14,%rax
  401a45:	5b                   	pop    %rbx
  401a46:	5d                   	pop    %rbp
  401a47:	41 5c                	pop    %r12
  401a49:	41 5d                	pop    %r13
  401a4b:	41 5e                	pop    %r14
  401a4d:	c3                   	retq   
  401a4e:	48 c7 c0 ff ff ff ff 	mov    $0xffffffffffffffff,%rax
  401a55:	eb ee                	jmp    401a45 <writen+0x4e>

0000000000401a57 <send_msg>:
  401a57:	41 57                	push   %r15
  401a59:	41 56                	push   %r14
  401a5b:	41 55                	push   %r13
  401a5d:	41 54                	push   %r12
  401a5f:	55                   	push   %rbp
  401a60:	53                   	push   %rbx
  401a61:	48 81 ec 78 24 00 00 	sub    $0x2478,%rsp
  401a68:	41 89 fc             	mov    %edi,%r12d
  401a6b:	ba 00 00 00 00       	mov    $0x0,%edx
  401a70:	be 01 00 00 00       	mov    $0x1,%esi
  401a75:	bf 02 00 00 00       	mov    $0x2,%edi
  401a7a:	e8 a1 f7 ff ff       	callq  401220 <socket@plt>
  401a7f:	89 44 24 0c          	mov    %eax,0xc(%rsp)
  401a83:	85 c0                	test   %eax,%eax
  401a85:	0f 88 28 02 00 00    	js     401cb3 <send_msg+0x25c>
  401a8b:	48 8d 94 24 64 24 00 	lea    0x2464(%rsp),%rdx
  401a92:	00 
  401a93:	48 c7 84 24 64 24 00 	movq   $0x0,0x2464(%rsp)
  401a9a:	00 00 00 00 00 
  401a9f:	c7 42 08 00 00 00 00 	movl   $0x0,0x8(%rdx)
  401aa6:	66 c7 84 24 60 24 00 	movw   $0x2,0x2460(%rsp)
  401aad:	00 02 00 
  401ab0:	66 c7 84 24 62 24 00 	movw   $0x7ac8,0x2462(%rsp)
  401ab7:	00 c8 7a 
  401aba:	48 8d 35 bb 18 00 00 	lea    0x18bb(%rip),%rsi        # 40337c <array.3192+0x1bc>
  401ac1:	bf 02 00 00 00       	mov    $0x2,%edi
  401ac6:	b8 00 00 00 00       	mov    $0x0,%eax
  401acb:	e8 80 f6 ff ff       	callq  401150 <inet_pton@plt>
  401ad0:	85 c0                	test   %eax,%eax
  401ad2:	0f 88 0d 02 00 00    	js     401ce5 <send_msg+0x28e>
  401ad8:	48 8d b4 24 60 24 00 	lea    0x2460(%rsp),%rsi
  401adf:	00 
  401ae0:	ba 10 00 00 00       	mov    $0x10,%edx
  401ae5:	8b 7c 24 0c          	mov    0xc(%rsp),%edi
  401ae9:	e8 f2 f6 ff ff       	callq  4011e0 <connect@plt>
  401aee:	85 c0                	test   %eax,%eax
  401af0:	0f 88 2a 02 00 00    	js     401d20 <send_msg+0x2c9>
  401af6:	48 8d 6c 24 60       	lea    0x60(%rsp),%rbp
  401afb:	48 b8 53 75 62 6a 65 	movabs $0x3a7463656a627553,%rax
  401b02:	63 74 3a 
  401b05:	48 ba 20 42 6f 6d 62 	movabs $0x6f6e20626d6f4220,%rdx
  401b0c:	20 6e 6f 
  401b0f:	48 89 44 24 60       	mov    %rax,0x60(%rsp)
  401b14:	48 89 54 24 68       	mov    %rdx,0x68(%rsp)
  401b19:	48 b8 74 69 66 69 63 	movabs $0x6974616369666974,%rax
  401b20:	61 74 69 
  401b23:	48 89 44 24 70       	mov    %rax,0x70(%rsp)
  401b28:	c7 44 24 78 6f 6e 0a 	movl   $0xa6e6f,0x78(%rsp)
  401b2f:	00 
  401b30:	48 8d 9c 24 60 04 00 	lea    0x460(%rsp),%rbx
  401b37:	00 
  401b38:	48 89 ee             	mov    %rbp,%rsi
  401b3b:	48 89 df             	mov    %rbx,%rdi
  401b3e:	e8 6d f6 ff ff       	callq  4011b0 <strcat@plt>
  401b43:	66 c7 44 24 60 0a 00 	movw   $0xa,0x60(%rsp)
  401b4a:	48 89 ee             	mov    %rbp,%rsi
  401b4d:	48 89 df             	mov    %rbx,%rdi
  401b50:	e8 5b f6 ff ff       	callq  4011b0 <strcat@plt>
  401b55:	bf 00 00 00 00       	mov    $0x0,%edi
  401b5a:	e8 31 f6 ff ff       	callq  401190 <cuserid@plt>
  401b5f:	48 85 c0             	test   %rax,%rax
  401b62:	0f 84 f3 01 00 00    	je     401d5b <send_msg+0x304>
  401b68:	48 8d 7c 24 10       	lea    0x10(%rsp),%rdi
  401b6d:	48 89 c6             	mov    %rax,%rsi
  401b70:	e8 db f4 ff ff       	callq  401050 <strcpy@plt>
  401b75:	45 85 e4             	test   %r12d,%r12d
  401b78:	4c 8d 0d 0b 18 00 00 	lea    0x180b(%rip),%r9        # 40338a <array.3192+0x1ca>
  401b7f:	48 8d 05 0c 18 00 00 	lea    0x180c(%rip),%rax        # 403392 <array.3192+0x1d2>
  401b86:	4c 0f 44 c8          	cmove  %rax,%r9
  401b8a:	48 8d 5c 24 60       	lea    0x60(%rsp),%rbx
  401b8f:	48 83 ec 08          	sub    $0x8,%rsp
  401b93:	8b 05 63 3c 00 00    	mov    0x3c63(%rip),%eax        # 4057fc <num_input_strings>
  401b99:	50                   	push   %rax
  401b9a:	4c 8d 44 24 20       	lea    0x20(%rsp),%r8
  401b9f:	8b 0d bb 3a 00 00    	mov    0x3abb(%rip),%ecx        # 405660 <bomb_id>
  401ba5:	48 8d 15 b4 36 00 00 	lea    0x36b4(%rip),%rdx        # 405260 <lab_id>
  401bac:	48 8d 35 03 18 00 00 	lea    0x1803(%rip),%rsi        # 4033b6 <array.3192+0x1f6>
  401bb3:	48 89 df             	mov    %rbx,%rdi
  401bb6:	b8 00 00 00 00       	mov    $0x0,%eax
  401bbb:	e8 00 f6 ff ff       	callq  4011c0 <sprintf@plt>
  401bc0:	48 8d bc 24 70 04 00 	lea    0x470(%rsp),%rdi
  401bc7:	00 
  401bc8:	48 89 de             	mov    %rbx,%rsi
  401bcb:	e8 e0 f5 ff ff       	callq  4011b0 <strcat@plt>
  401bd0:	48 83 c4 10          	add    $0x10,%rsp
  401bd4:	83 3d 21 3c 00 00 00 	cmpl   $0x0,0x3c21(%rip)        # 4057fc <num_input_strings>
  401bdb:	7e 6b                	jle    401c48 <send_msg+0x1f1>
  401bdd:	48 8d 2d 3c 3c 00 00 	lea    0x3c3c(%rip),%rbp        # 405820 <input_strings>
  401be4:	bb 00 00 00 00       	mov    $0x0,%ebx
  401be9:	4c 8d 7c 24 10       	lea    0x10(%rsp),%r15
  401bee:	4c 8d 64 24 60       	lea    0x60(%rsp),%r12
  401bf3:	4c 8d 35 66 36 00 00 	lea    0x3666(%rip),%r14        # 405260 <lab_id>
  401bfa:	4c 8d ac 24 60 04 00 	lea    0x460(%rsp),%r13
  401c01:	00 
  401c02:	83 c3 01             	add    $0x1,%ebx
  401c05:	48 83 ec 08          	sub    $0x8,%rsp
  401c09:	55                   	push   %rbp
  401c0a:	41 89 d9             	mov    %ebx,%r9d
  401c0d:	4d 89 f8             	mov    %r15,%r8
  401c10:	8b 0d 4a 3a 00 00    	mov    0x3a4a(%rip),%ecx        # 405660 <bomb_id>
  401c16:	4c 89 f2             	mov    %r14,%rdx
  401c19:	48 8d 35 b2 17 00 00 	lea    0x17b2(%rip),%rsi        # 4033d2 <array.3192+0x212>
  401c20:	4c 89 e7             	mov    %r12,%rdi
  401c23:	b8 00 00 00 00       	mov    $0x0,%eax
  401c28:	e8 93 f5 ff ff       	callq  4011c0 <sprintf@plt>
  401c2d:	4c 89 e6             	mov    %r12,%rsi
  401c30:	4c 89 ef             	mov    %r13,%rdi
  401c33:	e8 78 f5 ff ff       	callq  4011b0 <strcat@plt>
  401c38:	48 83 c5 50          	add    $0x50,%rbp
  401c3c:	48 83 c4 10          	add    $0x10,%rsp
  401c40:	3b 1d b6 3b 00 00    	cmp    0x3bb6(%rip),%ebx        # 4057fc <num_input_strings>
  401c46:	7c ba                	jl     401c02 <send_msg+0x1ab>
  401c48:	48 8d ac 24 60 04 00 	lea    0x460(%rsp),%rbp
  401c4f:	00 
  401c50:	49 c7 c4 ff ff ff ff 	mov    $0xffffffffffffffff,%r12
  401c57:	bb 00 00 00 00       	mov    $0x0,%ebx
  401c5c:	4c 89 e1             	mov    %r12,%rcx
  401c5f:	48 89 ef             	mov    %rbp,%rdi
  401c62:	89 d8                	mov    %ebx,%eax
  401c64:	f2 ae                	repnz scas %es:(%rdi),%al
  401c66:	48 f7 d1             	not    %rcx
  401c69:	4a 8d 14 21          	lea    (%rcx,%r12,1),%rdx
  401c6d:	48 89 ee             	mov    %rbp,%rsi
  401c70:	8b 7c 24 0c          	mov    0xc(%rsp),%edi
  401c74:	e8 7e fd ff ff       	callq  4019f7 <writen>
  401c79:	48 89 c2             	mov    %rax,%rdx
  401c7c:	4c 89 e1             	mov    %r12,%rcx
  401c7f:	48 89 ef             	mov    %rbp,%rdi
  401c82:	89 d8                	mov    %ebx,%eax
  401c84:	f2 ae                	repnz scas %es:(%rdi),%al
  401c86:	48 89 cb             	mov    %rcx,%rbx
  401c89:	48 f7 d3             	not    %rbx
  401c8c:	4c 01 e3             	add    %r12,%rbx
  401c8f:	48 39 da             	cmp    %rbx,%rdx
  401c92:	0f 82 dc 00 00 00    	jb     401d74 <send_msg+0x31d>
  401c98:	8b 7c 24 0c          	mov    0xc(%rsp),%edi
  401c9c:	e8 2f f4 ff ff       	callq  4010d0 <close@plt>
  401ca1:	48 81 c4 78 24 00 00 	add    $0x2478,%rsp
  401ca8:	5b                   	pop    %rbx
  401ca9:	5d                   	pop    %rbp
  401caa:	41 5c                	pop    %r12
  401cac:	41 5d                	pop    %r13
  401cae:	41 5e                	pop    %r14
  401cb0:	41 5f                	pop    %r15
  401cb2:	c3                   	retq   
  401cb3:	48 8d 15 e1 16 00 00 	lea    0x16e1(%rip),%rdx        # 40339b <array.3192+0x1db>
  401cba:	48 8d 35 5c 13 00 00 	lea    0x135c(%rip),%rsi        # 40301d <_IO_stdin_used+0x1d>
  401cc1:	48 8b 3d 18 3b 00 00 	mov    0x3b18(%rip),%rdi        # 4057e0 <stdout@@GLIBC_2.2.5>
  401cc8:	b8 00 00 00 00       	mov    $0x0,%eax
  401ccd:	e8 5e f4 ff ff       	callq  401130 <fprintf@plt>
  401cd2:	8b 7c 24 0c          	mov    0xc(%rsp),%edi
  401cd6:	e8 f5 f3 ff ff       	callq  4010d0 <close@plt>
  401cdb:	bf 01 00 00 00       	mov    $0x1,%edi
  401ce0:	e8 eb f4 ff ff       	callq  4011d0 <exit@plt>
  401ce5:	48 8d 15 23 17 00 00 	lea    0x1723(%rip),%rdx        # 40340f <array.3192+0x24f>
  401cec:	48 8d 35 2a 13 00 00 	lea    0x132a(%rip),%rsi        # 40301d <_IO_stdin_used+0x1d>
  401cf3:	48 8b 3d e6 3a 00 00 	mov    0x3ae6(%rip),%rdi        # 4057e0 <stdout@@GLIBC_2.2.5>
  401cfa:	b8 00 00 00 00       	mov    $0x0,%eax
  401cff:	e8 2c f4 ff ff       	callq  401130 <fprintf@plt>
  401d04:	83 7c 24 0c 00       	cmpl   $0x0,0xc(%rsp)
  401d09:	75 0a                	jne    401d15 <send_msg+0x2be>
  401d0b:	bf 01 00 00 00       	mov    $0x1,%edi
  401d10:	e8 bb f4 ff ff       	callq  4011d0 <exit@plt>
  401d15:	8b 7c 24 0c          	mov    0xc(%rsp),%edi
  401d19:	e8 b2 f3 ff ff       	callq  4010d0 <close@plt>
  401d1e:	eb eb                	jmp    401d0b <send_msg+0x2b4>
  401d20:	48 8d 15 81 16 00 00 	lea    0x1681(%rip),%rdx        # 4033a8 <array.3192+0x1e8>
  401d27:	48 8d 35 ef 12 00 00 	lea    0x12ef(%rip),%rsi        # 40301d <_IO_stdin_used+0x1d>
  401d2e:	48 8b 3d ab 3a 00 00 	mov    0x3aab(%rip),%rdi        # 4057e0 <stdout@@GLIBC_2.2.5>
  401d35:	b8 00 00 00 00       	mov    $0x0,%eax
  401d3a:	e8 f1 f3 ff ff       	callq  401130 <fprintf@plt>
  401d3f:	83 7c 24 0c 00       	cmpl   $0x0,0xc(%rsp)
  401d44:	75 0a                	jne    401d50 <send_msg+0x2f9>
  401d46:	bf 01 00 00 00       	mov    $0x1,%edi
  401d4b:	e8 80 f4 ff ff       	callq  4011d0 <exit@plt>
  401d50:	8b 7c 24 0c          	mov    0xc(%rsp),%edi
  401d54:	e8 77 f3 ff ff       	callq  4010d0 <close@plt>
  401d59:	eb eb                	jmp    401d46 <send_msg+0x2ef>
  401d5b:	c7 44 24 10 6e 6f 62 	movl   $0x6f626f6e,0x10(%rsp)
  401d62:	6f 
  401d63:	66 c7 44 24 14 64 79 	movw   $0x7964,0x14(%rsp)
  401d6a:	c6 44 24 16 00       	movb   $0x0,0x16(%rsp)
  401d6f:	e9 01 fe ff ff       	jmpq   401b75 <send_msg+0x11e>
  401d74:	48 8d 15 73 16 00 00 	lea    0x1673(%rip),%rdx        # 4033ee <array.3192+0x22e>
  401d7b:	48 8d 35 9b 12 00 00 	lea    0x129b(%rip),%rsi        # 40301d <_IO_stdin_used+0x1d>
  401d82:	48 8b 3d 57 3a 00 00 	mov    0x3a57(%rip),%rdi        # 4057e0 <stdout@@GLIBC_2.2.5>
  401d89:	e8 a2 f3 ff ff       	callq  401130 <fprintf@plt>
  401d8e:	83 7c 24 0c 00       	cmpl   $0x0,0xc(%rsp)
  401d93:	75 0a                	jne    401d9f <send_msg+0x348>
  401d95:	bf 01 00 00 00       	mov    $0x1,%edi
  401d9a:	e8 31 f4 ff ff       	callq  4011d0 <exit@plt>
  401d9f:	8b 7c 24 0c          	mov    0xc(%rsp),%edi
  401da3:	e8 28 f3 ff ff       	callq  4010d0 <close@plt>
  401da8:	eb eb                	jmp    401d95 <send_msg+0x33e>

0000000000401daa <send_msg_2>:
  401daa:	41 56                	push   %r14
  401dac:	41 55                	push   %r13
  401dae:	41 54                	push   %r12
  401db0:	55                   	push   %rbp
  401db1:	53                   	push   %rbx
  401db2:	48 83 ec 50          	sub    $0x50,%rsp
  401db6:	89 fb                	mov    %edi,%ebx
  401db8:	bf 00 00 00 00       	mov    $0x0,%edi
  401dbd:	e8 fe f2 ff ff       	callq  4010c0 <dup@plt>
  401dc2:	83 f8 ff             	cmp    $0xffffffff,%eax
  401dc5:	0f 84 91 01 00 00    	je     401f5c <send_msg_2+0x1b2>
  401dcb:	41 89 c6             	mov    %eax,%r14d
  401dce:	bf 00 00 00 00       	mov    $0x0,%edi
  401dd3:	e8 f8 f2 ff ff       	callq  4010d0 <close@plt>
  401dd8:	83 f8 ff             	cmp    $0xffffffff,%eax
  401ddb:	0f 84 91 01 00 00    	je     401f72 <send_msg_2+0x1c8>
  401de1:	e8 1a f3 ff ff       	callq  401100 <tmpfile@plt>
  401de6:	49 89 c4             	mov    %rax,%r12
  401de9:	48 85 c0             	test   %rax,%rax
  401dec:	0f 84 96 01 00 00    	je     401f88 <send_msg_2+0x1de>
  401df2:	48 89 c1             	mov    %rax,%rcx
  401df5:	ba 1b 00 00 00       	mov    $0x1b,%edx
  401dfa:	be 01 00 00 00       	mov    $0x1,%esi
  401dff:	48 8d 3d 37 16 00 00 	lea    0x1637(%rip),%rdi        # 40343d <array.3192+0x27d>
  401e06:	e8 e5 f3 ff ff       	callq  4011f0 <fwrite@plt>
  401e0b:	4c 89 e6             	mov    %r12,%rsi
  401e0e:	bf 0a 00 00 00       	mov    $0xa,%edi
  401e13:	e8 c8 f2 ff ff       	callq  4010e0 <fputc@plt>
  401e18:	bf 00 00 00 00       	mov    $0x0,%edi
  401e1d:	e8 6e f3 ff ff       	callq  401190 <cuserid@plt>
  401e22:	48 85 c0             	test   %rax,%rax
  401e25:	0f 84 73 01 00 00    	je     401f9e <send_msg_2+0x1f4>
  401e2b:	48 89 e7             	mov    %rsp,%rdi
  401e2e:	48 89 c6             	mov    %rax,%rsi
  401e31:	e8 1a f2 ff ff       	callq  401050 <strcpy@plt>
  401e36:	85 db                	test   %ebx,%ebx
  401e38:	4c 8d 0d 4b 15 00 00 	lea    0x154b(%rip),%r9        # 40338a <array.3192+0x1ca>
  401e3f:	48 8d 05 4c 15 00 00 	lea    0x154c(%rip),%rax        # 403392 <array.3192+0x1d2>
  401e46:	4c 0f 44 c8          	cmove  %rax,%r9
  401e4a:	48 83 ec 08          	sub    $0x8,%rsp
  401e4e:	8b 05 a8 39 00 00    	mov    0x39a8(%rip),%eax        # 4057fc <num_input_strings>
  401e54:	50                   	push   %rax
  401e55:	4c 8d 44 24 10       	lea    0x10(%rsp),%r8
  401e5a:	8b 0d 00 38 00 00    	mov    0x3800(%rip),%ecx        # 405660 <bomb_id>
  401e60:	48 8d 15 f9 33 00 00 	lea    0x33f9(%rip),%rdx        # 405260 <lab_id>
  401e67:	48 8d 35 48 15 00 00 	lea    0x1548(%rip),%rsi        # 4033b6 <array.3192+0x1f6>
  401e6e:	4c 89 e7             	mov    %r12,%rdi
  401e71:	b8 00 00 00 00       	mov    $0x0,%eax
  401e76:	e8 b5 f2 ff ff       	callq  401130 <fprintf@plt>
  401e7b:	48 83 c4 10          	add    $0x10,%rsp
  401e7f:	83 3d 76 39 00 00 00 	cmpl   $0x0,0x3976(%rip)        # 4057fc <num_input_strings>
  401e86:	7e 4e                	jle    401ed6 <send_msg_2+0x12c>
  401e88:	48 8d 2d 91 39 00 00 	lea    0x3991(%rip),%rbp        # 405820 <input_strings>
  401e8f:	bb 00 00 00 00       	mov    $0x0,%ebx
  401e94:	49 89 e5             	mov    %rsp,%r13
  401e97:	83 c3 01             	add    $0x1,%ebx
  401e9a:	48 83 ec 08          	sub    $0x8,%rsp
  401e9e:	55                   	push   %rbp
  401e9f:	41 89 d9             	mov    %ebx,%r9d
  401ea2:	4d 89 e8             	mov    %r13,%r8
  401ea5:	8b 0d b5 37 00 00    	mov    0x37b5(%rip),%ecx        # 405660 <bomb_id>
  401eab:	48 8d 15 ae 33 00 00 	lea    0x33ae(%rip),%rdx        # 405260 <lab_id>
  401eb2:	48 8d 35 19 15 00 00 	lea    0x1519(%rip),%rsi        # 4033d2 <array.3192+0x212>
  401eb9:	4c 89 e7             	mov    %r12,%rdi
  401ebc:	b8 00 00 00 00       	mov    $0x0,%eax
  401ec1:	e8 6a f2 ff ff       	callq  401130 <fprintf@plt>
  401ec6:	48 83 c5 50          	add    $0x50,%rbp
  401eca:	48 83 c4 10          	add    $0x10,%rsp
  401ece:	3b 1d 28 39 00 00    	cmp    0x3928(%rip),%ebx        # 4057fc <num_input_strings>
  401ed4:	7c c1                	jl     401e97 <send_msg_2+0xed>
  401ed6:	4c 89 e7             	mov    %r12,%rdi
  401ed9:	e8 d2 f1 ff ff       	callq  4010b0 <rewind@plt>
  401ede:	4c 8d 05 74 15 00 00 	lea    0x1574(%rip),%r8        # 403459 <array.3192+0x299>
  401ee5:	48 8d 0d 77 15 00 00 	lea    0x1577(%rip),%rcx        # 403463 <array.3192+0x2a3>
  401eec:	48 8d 15 78 15 00 00 	lea    0x1578(%rip),%rdx        # 40346b <array.3192+0x2ab>
  401ef3:	48 8d 35 88 15 00 00 	lea    0x1588(%rip),%rsi        # 403482 <array.3192+0x2c2>
  401efa:	48 8d 3d 5f 3f 00 00 	lea    0x3f5f(%rip),%rdi        # 405e60 <scratch>
  401f01:	b8 00 00 00 00       	mov    $0x0,%eax
  401f06:	e8 b5 f2 ff ff       	callq  4011c0 <sprintf@plt>
  401f0b:	48 8d 3d 4e 3f 00 00 	lea    0x3f4e(%rip),%rdi        # 405e60 <scratch>
  401f12:	e8 79 f1 ff ff       	callq  401090 <system@plt>
  401f17:	85 c0                	test   %eax,%eax
  401f19:	0f 85 97 00 00 00    	jne    401fb6 <send_msg_2+0x20c>
  401f1f:	4c 89 e7             	mov    %r12,%rdi
  401f22:	e8 59 f1 ff ff       	callq  401080 <fclose@plt>
  401f27:	85 c0                	test   %eax,%eax
  401f29:	0f 85 9d 00 00 00    	jne    401fcc <send_msg_2+0x222>
  401f2f:	44 89 f7             	mov    %r14d,%edi
  401f32:	e8 89 f1 ff ff       	callq  4010c0 <dup@plt>
  401f37:	85 c0                	test   %eax,%eax
  401f39:	0f 85 a3 00 00 00    	jne    401fe2 <send_msg_2+0x238>
  401f3f:	44 89 f7             	mov    %r14d,%edi
  401f42:	e8 89 f1 ff ff       	callq  4010d0 <close@plt>
  401f47:	85 c0                	test   %eax,%eax
  401f49:	0f 85 a9 00 00 00    	jne    401ff8 <send_msg_2+0x24e>
  401f4f:	48 83 c4 50          	add    $0x50,%rsp
  401f53:	5b                   	pop    %rbx
  401f54:	5d                   	pop    %rbp
  401f55:	41 5c                	pop    %r12
  401f57:	41 5d                	pop    %r13
  401f59:	41 5e                	pop    %r14
  401f5b:	c3                   	retq   
  401f5c:	48 8d 3d 9e 14 00 00 	lea    0x149e(%rip),%rdi        # 403401 <array.3192+0x241>
  401f63:	e8 f8 f0 ff ff       	callq  401060 <puts@plt>
  401f68:	bf 08 00 00 00       	mov    $0x8,%edi
  401f6d:	e8 5e f2 ff ff       	callq  4011d0 <exit@plt>
  401f72:	48 8d 3d 9c 14 00 00 	lea    0x149c(%rip),%rdi        # 403415 <array.3192+0x255>
  401f79:	e8 e2 f0 ff ff       	callq  401060 <puts@plt>
  401f7e:	bf 08 00 00 00       	mov    $0x8,%edi
  401f83:	e8 48 f2 ff ff       	callq  4011d0 <exit@plt>
  401f88:	48 8d 3d 99 14 00 00 	lea    0x1499(%rip),%rdi        # 403428 <array.3192+0x268>
  401f8f:	e8 cc f0 ff ff       	callq  401060 <puts@plt>
  401f94:	bf 08 00 00 00       	mov    $0x8,%edi
  401f99:	e8 32 f2 ff ff       	callq  4011d0 <exit@plt>
  401f9e:	c7 04 24 6e 6f 62 6f 	movl   $0x6f626f6e,(%rsp)
  401fa5:	66 c7 44 24 04 64 79 	movw   $0x7964,0x4(%rsp)
  401fac:	c6 44 24 06 00       	movb   $0x0,0x6(%rsp)
  401fb1:	e9 80 fe ff ff       	jmpq   401e36 <send_msg_2+0x8c>
  401fb6:	48 8d 3d ce 14 00 00 	lea    0x14ce(%rip),%rdi        # 40348b <array.3192+0x2cb>
  401fbd:	e8 9e f0 ff ff       	callq  401060 <puts@plt>
  401fc2:	bf 08 00 00 00       	mov    $0x8,%edi
  401fc7:	e8 04 f2 ff ff       	callq  4011d0 <exit@plt>
  401fcc:	48 8d 3d d2 14 00 00 	lea    0x14d2(%rip),%rdi        # 4034a5 <array.3192+0x2e5>
  401fd3:	e8 88 f0 ff ff       	callq  401060 <puts@plt>
  401fd8:	bf 08 00 00 00       	mov    $0x8,%edi
  401fdd:	e8 ee f1 ff ff       	callq  4011d0 <exit@plt>
  401fe2:	48 8d 3d d5 14 00 00 	lea    0x14d5(%rip),%rdi        # 4034be <array.3192+0x2fe>
  401fe9:	e8 72 f0 ff ff       	callq  401060 <puts@plt>
  401fee:	bf 08 00 00 00       	mov    $0x8,%edi
  401ff3:	e8 d8 f1 ff ff       	callq  4011d0 <exit@plt>
  401ff8:	48 8d 3d da 14 00 00 	lea    0x14da(%rip),%rdi        # 4034d9 <array.3192+0x319>
  401fff:	e8 5c f0 ff ff       	callq  401060 <puts@plt>
  402004:	bf 08 00 00 00       	mov    $0x8,%edi
  402009:	e8 c2 f1 ff ff       	callq  4011d0 <exit@plt>

000000000040200e <explode_bomb>:
  40200e:	48 83 ec 08          	sub    $0x8,%rsp
  402012:	48 8d 3d d7 14 00 00 	lea    0x14d7(%rip),%rdi        # 4034f0 <array.3192+0x330>
  402019:	e8 42 f0 ff ff       	callq  401060 <puts@plt>
  40201e:	48 8d 3d d4 14 00 00 	lea    0x14d4(%rip),%rdi        # 4034f9 <array.3192+0x339>
  402025:	e8 36 f0 ff ff       	callq  401060 <puts@plt>
  40202a:	bf 00 00 00 00       	mov    $0x0,%edi
  40202f:	e8 23 fa ff ff       	callq  401a57 <send_msg>
  402034:	48 8d 3d fd 11 00 00 	lea    0x11fd(%rip),%rdi        # 403238 <array.3192+0x78>
  40203b:	e8 20 f0 ff ff       	callq  401060 <puts@plt>
  402040:	bf 08 00 00 00       	mov    $0x8,%edi
  402045:	e8 86 f1 ff ff       	callq  4011d0 <exit@plt>

000000000040204a <read_six_numbers>:
  40204a:	48 83 ec 08          	sub    $0x8,%rsp
  40204e:	48 89 f2             	mov    %rsi,%rdx
  402051:	48 8d 4e 04          	lea    0x4(%rsi),%rcx
  402055:	48 8d 46 14          	lea    0x14(%rsi),%rax
  402059:	50                   	push   %rax
  40205a:	48 8d 46 10          	lea    0x10(%rsi),%rax
  40205e:	50                   	push   %rax
  40205f:	4c 8d 4e 0c          	lea    0xc(%rsi),%r9
  402063:	4c 8d 46 08          	lea    0x8(%rsi),%r8
  402067:	48 8d 35 a2 14 00 00 	lea    0x14a2(%rip),%rsi        # 403510 <array.3192+0x350>
  40206e:	b8 00 00 00 00       	mov    $0x0,%eax
  402073:	e8 f8 f0 ff ff       	callq  401170 <__isoc99_sscanf@plt>
  402078:	48 83 c4 10          	add    $0x10,%rsp
  40207c:	83 f8 05             	cmp    $0x5,%eax
  40207f:	7e 05                	jle    402086 <read_six_numbers+0x3c>
  402081:	48 83 c4 08          	add    $0x8,%rsp
  402085:	c3                   	retq   
  402086:	e8 83 ff ff ff       	callq  40200e <explode_bomb>

000000000040208b <read_line>:
  40208b:	48 83 ec 08          	sub    $0x8,%rsp
  40208f:	b8 00 00 00 00       	mov    $0x0,%eax
  402094:	e8 10 f9 ff ff       	callq  4019a9 <skip>
  402099:	48 85 c0             	test   %rax,%rax
  40209c:	74 6f                	je     40210d <read_line+0x82>
  40209e:	8b 35 58 37 00 00    	mov    0x3758(%rip),%esi        # 4057fc <num_input_strings>
  4020a4:	48 63 c6             	movslq %esi,%rax
  4020a7:	48 8d 14 80          	lea    (%rax,%rax,4),%rdx
  4020ab:	48 c1 e2 04          	shl    $0x4,%rdx
  4020af:	48 8d 05 6a 37 00 00 	lea    0x376a(%rip),%rax        # 405820 <input_strings>
  4020b6:	48 01 c2             	add    %rax,%rdx
  4020b9:	48 c7 c1 ff ff ff ff 	mov    $0xffffffffffffffff,%rcx
  4020c0:	b8 00 00 00 00       	mov    $0x0,%eax
  4020c5:	48 89 d7             	mov    %rdx,%rdi
  4020c8:	f2 ae                	repnz scas %es:(%rdi),%al
  4020ca:	48 f7 d1             	not    %rcx
  4020cd:	48 83 e9 01          	sub    $0x1,%rcx
  4020d1:	83 f9 4f             	cmp    $0x4f,%ecx
  4020d4:	0f 84 a1 00 00 00    	je     40217b <read_line+0xf0>
  4020da:	83 e9 01             	sub    $0x1,%ecx
  4020dd:	48 63 c9             	movslq %ecx,%rcx
  4020e0:	48 63 c6             	movslq %esi,%rax
  4020e3:	48 8d 04 80          	lea    (%rax,%rax,4),%rax
  4020e7:	48 c1 e0 04          	shl    $0x4,%rax
  4020eb:	48 89 c7             	mov    %rax,%rdi
  4020ee:	48 8d 05 2b 37 00 00 	lea    0x372b(%rip),%rax        # 405820 <input_strings>
  4020f5:	48 01 f8             	add    %rdi,%rax
  4020f8:	c6 04 08 00          	movb   $0x0,(%rax,%rcx,1)
  4020fc:	83 c6 01             	add    $0x1,%esi
  4020ff:	89 35 f7 36 00 00    	mov    %esi,0x36f7(%rip)        # 4057fc <num_input_strings>
  402105:	48 89 d0             	mov    %rdx,%rax
  402108:	48 83 c4 08          	add    $0x8,%rsp
  40210c:	c3                   	retq   
  40210d:	48 8b 05 dc 36 00 00 	mov    0x36dc(%rip),%rax        # 4057f0 <stdin@@GLIBC_2.2.5>
  402114:	48 39 05 e5 36 00 00 	cmp    %rax,0x36e5(%rip)        # 405800 <infile>
  40211b:	74 1b                	je     402138 <read_line+0xad>
  40211d:	48 8d 3d 1c 14 00 00 	lea    0x141c(%rip),%rdi        # 403540 <array.3192+0x380>
  402124:	e8 07 ef ff ff       	callq  401030 <getenv@plt>
  402129:	48 85 c0             	test   %rax,%rax
  40212c:	74 1b                	je     402149 <read_line+0xbe>
  40212e:	bf 00 00 00 00       	mov    $0x0,%edi
  402133:	e8 98 f0 ff ff       	callq  4011d0 <exit@plt>
  402138:	48 8d 3d e3 13 00 00 	lea    0x13e3(%rip),%rdi        # 403522 <array.3192+0x362>
  40213f:	e8 1c ef ff ff       	callq  401060 <puts@plt>
  402144:	e8 c5 fe ff ff       	callq  40200e <explode_bomb>
  402149:	48 8b 05 a0 36 00 00 	mov    0x36a0(%rip),%rax        # 4057f0 <stdin@@GLIBC_2.2.5>
  402150:	48 89 05 a9 36 00 00 	mov    %rax,0x36a9(%rip)        # 405800 <infile>
  402157:	b8 00 00 00 00       	mov    $0x0,%eax
  40215c:	e8 48 f8 ff ff       	callq  4019a9 <skip>
  402161:	48 85 c0             	test   %rax,%rax
  402164:	0f 85 34 ff ff ff    	jne    40209e <read_line+0x13>
  40216a:	48 8d 3d b1 13 00 00 	lea    0x13b1(%rip),%rdi        # 403522 <array.3192+0x362>
  402171:	e8 ea ee ff ff       	callq  401060 <puts@plt>
  402176:	e8 93 fe ff ff       	callq  40200e <explode_bomb>
  40217b:	48 8d 3d c9 13 00 00 	lea    0x13c9(%rip),%rdi        # 40354b <array.3192+0x38b>
  402182:	e8 d9 ee ff ff       	callq  401060 <puts@plt>
  402187:	e8 82 fe ff ff       	callq  40200e <explode_bomb>

000000000040218c <phase_defused>:
  40218c:	48 83 ec 68          	sub    $0x68,%rsp
  402190:	bf 01 00 00 00       	mov    $0x1,%edi
  402195:	e8 bd f8 ff ff       	callq  401a57 <send_msg>
  40219a:	83 3d 5b 36 00 00 06 	cmpl   $0x6,0x365b(%rip)        # 4057fc <num_input_strings>
  4021a1:	74 05                	je     4021a8 <phase_defused+0x1c>
  4021a3:	48 83 c4 68          	add    $0x68,%rsp
  4021a7:	c3                   	retq   
  4021a8:	48 8d 4c 24 10       	lea    0x10(%rsp),%rcx
  4021ad:	48 8d 54 24 0c       	lea    0xc(%rsp),%rdx
  4021b2:	48 8d 35 ad 13 00 00 	lea    0x13ad(%rip),%rsi        # 403566 <array.3192+0x3a6>
  4021b9:	48 8d 3d 50 37 00 00 	lea    0x3750(%rip),%rdi        # 405910 <input_strings+0xf0>
  4021c0:	b8 00 00 00 00       	mov    $0x0,%eax
  4021c5:	e8 a6 ef ff ff       	callq  401170 <__isoc99_sscanf@plt>
  4021ca:	83 f8 02             	cmp    $0x2,%eax
  4021cd:	74 1a                	je     4021e9 <phase_defused+0x5d>
  4021cf:	48 8d 3d ea 10 00 00 	lea    0x10ea(%rip),%rdi        # 4032c0 <array.3192+0x100>
  4021d6:	e8 85 ee ff ff       	callq  401060 <puts@plt>
  4021db:	48 8d 3d 0e 11 00 00 	lea    0x110e(%rip),%rdi        # 4032f0 <array.3192+0x130>
  4021e2:	e8 79 ee ff ff       	callq  401060 <puts@plt>
  4021e7:	eb ba                	jmp    4021a3 <phase_defused+0x17>
  4021e9:	48 8d 7c 24 10       	lea    0x10(%rsp),%rdi
  4021ee:	48 8d 35 77 13 00 00 	lea    0x1377(%rip),%rsi        # 40356c <array.3192+0x3ac>
  4021f5:	e8 05 f6 ff ff       	callq  4017ff <strings_not_equal>
  4021fa:	85 c0                	test   %eax,%eax
  4021fc:	75 d1                	jne    4021cf <phase_defused+0x43>
  4021fe:	48 8d 3d 5b 10 00 00 	lea    0x105b(%rip),%rdi        # 403260 <array.3192+0xa0>
  402205:	e8 56 ee ff ff       	callq  401060 <puts@plt>
  40220a:	48 8d 3d 77 10 00 00 	lea    0x1077(%rip),%rdi        # 403288 <array.3192+0xc8>
  402211:	e8 4a ee ff ff       	callq  401060 <puts@plt>
  402216:	b8 00 00 00 00       	mov    $0x0,%eax
  40221b:	e8 f0 f4 ff ff       	callq  401710 <secret_phase>
  402220:	eb ad                	jmp    4021cf <phase_defused+0x43>
  402222:	66 2e 0f 1f 84 00 00 	nopw   %cs:0x0(%rax,%rax,1)
  402229:	00 00 00 
  40222c:	0f 1f 40 00          	nopl   0x0(%rax)

0000000000402230 <__libc_csu_init>:
  402230:	41 57                	push   %r15
  402232:	49 89 d7             	mov    %rdx,%r15
  402235:	41 56                	push   %r14
  402237:	49 89 f6             	mov    %rsi,%r14
  40223a:	41 55                	push   %r13
  40223c:	41 89 fd             	mov    %edi,%r13d
  40223f:	41 54                	push   %r12
  402241:	4c 8d 25 c8 2b 00 00 	lea    0x2bc8(%rip),%r12        # 404e10 <__frame_dummy_init_array_entry>
  402248:	55                   	push   %rbp
  402249:	48 8d 2d c8 2b 00 00 	lea    0x2bc8(%rip),%rbp        # 404e18 <__init_array_end>
  402250:	53                   	push   %rbx
  402251:	4c 29 e5             	sub    %r12,%rbp
  402254:	48 83 ec 08          	sub    $0x8,%rsp
  402258:	e8 a3 ed ff ff       	callq  401000 <_init>
  40225d:	48 c1 fd 03          	sar    $0x3,%rbp
  402261:	74 1b                	je     40227e <__libc_csu_init+0x4e>
  402263:	31 db                	xor    %ebx,%ebx
  402265:	0f 1f 00             	nopl   (%rax)
  402268:	4c 89 fa             	mov    %r15,%rdx
  40226b:	4c 89 f6             	mov    %r14,%rsi
  40226e:	44 89 ef             	mov    %r13d,%edi
  402271:	41 ff 14 dc          	callq  *(%r12,%rbx,8)
  402275:	48 83 c3 01          	add    $0x1,%rbx
  402279:	48 39 dd             	cmp    %rbx,%rbp
  40227c:	75 ea                	jne    402268 <__libc_csu_init+0x38>
  40227e:	48 83 c4 08          	add    $0x8,%rsp
  402282:	5b                   	pop    %rbx
  402283:	5d                   	pop    %rbp
  402284:	41 5c                	pop    %r12
  402286:	41 5d                	pop    %r13
  402288:	41 5e                	pop    %r14
  40228a:	41 5f                	pop    %r15
  40228c:	c3                   	retq   
  40228d:	0f 1f 00             	nopl   (%rax)

0000000000402290 <__libc_csu_fini>:
  402290:	c3                   	retq   

Disassembly of section .fini:

0000000000402294 <_fini>:
  402294:	48 83 ec 08          	sub    $0x8,%rsp
  402298:	48 83 c4 08          	add    $0x8,%rsp
  40229c:	c3                   	retq   
